(dp0
V6453006
p1
(lp2
Vrecommend
p3
aVgreat
p4
aVs
p5
aVdivya
p6
aVlove
p7
aVgreat
p8
aVus
p9
aVstay
p10
aVdescrib
p11
aVapart
p12
aVdivya
p13
aVsuit
p14
aVla
p15
aVy
p16
aVmuy
p17
asV3636904
p18
(lp19
Vgreat
p20
aVapart
p21
aVplace
p22
aVapart
p23
aVlisa
p24
aVgreat
p25
aVcool
p26
aVaccur
p27
aVpictur
p28
aVla
p29
aVil
p30
aVlisa
p31
ag5
aVapart
p32
asV5037937
p33
(lp34
Vhome
p35
aVstay
p36
aVnice
p37
aVgreat
p38
aVhome
p39
aVcomfort
p40
aVgreat
p41
aVhome
p42
aVcomfort
p43
aVfrancisco
p44
aVsan
p45
aVgreat
p46
aVstay
p47
aVenjoy
p48
aVeveri
p49
asV5549826
p50
(lp51
Vhome
p52
aVstay
p53
aVback
p54
aVmichael
p55
aVstay
p56
aVbob
p57
aVmichael
p58
aVbob
p59
aVus
p60
aVstay
p61
aVmichael
p62
aVget
p63
aVund
p64
aVsehr
p65
aVdie
p66
asV533627
p67
(lp68
Vhous
p69
aVgreat
p70
aVstay
p71
aVhous
p72
aVcenter
p73
aVlocat
p74
aVstay
p75
aVgreat
p76
aVhome
p77
aVfran
p78
aVtime
p79
ag5
aVenjoy
p80
aVstay
p81
aVeveryth
p82
asV6573439
p83
(lp84
Vpark
p85
aVhome
p86
aVcar
p87
aVhome
p88
aVpark
p89
aVdistanc
p90
aVpark
p91
aVhome
p92
aVneighborhood
p93
aVhome
p94
aVgate
p95
aVback
p96
aVpark
p97
aVpick
p98
aVcar
p99
asV6088249
p100
(lp101
Vday
p102
aVhost
p103
aVreserv
p104
aVyuchi
p105
aVapart
p106
aVhelp
p107
aVplace
p108
aVgreat
p109
aVbeauti
p110
aVhost
p111
aVeven
p112
aVmarina
p113
aVsan
p114
aVfrancisco
p115
aVapart
p116
asV5346515
p117
(lp118
Vstay
p119
aVgatz
p120
aVlocat
p121
aVplace
p122
aVabsolut
p123
aVeveryth
p124
aVhous
p125
aVwell
p126
aVgood
p127
aVstay
p128
aVfeel
p129
aVmade
p130
asV6276478
p131
(lp132
Vrealli
p133
aVnice
p134
aVcharm
p135
aVclean
p136
aVpeopl
p137
aVhous
p138
aVpeopl
p139
aVnew
p140
aVguest
p141
aVadvertis
p142
aVlot
p143
aVmodern
p144
aVclean
p145
aVhous
p146
aVpark
p147
asV878935
p148
(lp149
Vapart
p150
aVgreat
p151
aVstay
p152
aVgreat
p153
aVashley
p154
aVapart
p155
aVashley
p156
aVgreat
p157
aVapart
p158
aVapart
p159
aVashley
p160
aVus
p161
aVapart
p162
aVashley
p163
aVtime
p164
asV6165516
p165
(lp166
Vbeth
p167
aVus
p168
aVhelp
p169
aVstay
p170
aVbeth
p171
aVhome
p172
aVbeth
p173
aVstay
p174
aVlove
p175
aVstay
p176
aVbeth
p177
aVgreat
p178
aVsf
p179
aVlove
p180
aVbeauti
p181
asV3896946
p182
(lp183
Valic
p184
aVstay
p185
aVgreat
p186
aValic
p187
aVapart
p188
aVgreat
p189
aVstay
p190
aValic
p191
aVclean
p192
aValic
p193
aVplace
p194
aVapart
p195
aValic
p196
aVapart
p197
aVgreat
p198
asV8719572
p199
(lp200
Vhost
p201
aVnice
p202
aVroom
p203
aVnice
p204
aVhost
p205
aVdefinit
p206
aVnice
p207
aVhost
p208
aVdefinit
p209
aVhost
p210
aVnice
p211
aVapart
p212
aVfriendli
p213
aVstay
p214
aVspend
p215
asV7227729
p216
(lp217
Vhost
p218
aVplace
p219
aVstay
p220
aVhost
p221
aVrealli
p222
aVwell
p223
aVhous
p224
aVlike
p225
aVhost
p226
aVhost
p227
aVplace
p228
aVstay
p229
aVgreat
p230
aVstay
p231
aVlove
p232
asV4719908
p233
(lp234
Vtime
p235
aVjoyc
p236
aVstay
p237
aVweek
p238
aVdidn
p239
aVbathroom
p240
aVstay
p241
aVjoyc
p242
aVtime
p243
aVtime
p244
aVstay
p245
aVjoyc
p246
aVkitchen
p247
aVseem
p248
aVtime
p249
asV7562249
p250
(lp251
Vgreat
p252
aVkatherin
p253
aVapart
p254
aVest
p255
aVkatherin
p256
aVvou
p257
aVapart
p258
aVstay
p259
aVwell
p260
aVplace
p261
aVgreat
p262
aVhome
p263
aVgreat
p264
aVperfect
p265
aVeasi
p266
asV1428590
p267
(lp268
g5
aVmin
p269
aVrebecca
p270
aVus
p271
aVrebecca
p272
aVstay
p273
aVplace
p274
aVstay
p275
aVrealli
p276
aVrebecca
p277
aVplace
p278
ag5
aVapart
p279
aVstay
p280
aVrebecca
p281
asV183859
p282
(lp283
Vstephen
p284
aVneed
p285
aVhous
p286
aVstephen
p287
aVgreat
p288
aVstay
p289
aVde
p290
aVet
p291
aVle
p292
aVstephen
p293
aVsehr
p294
aVund
p295
aVus
p296
aVpark
p297
aVstephen
p298
asV780002
p299
(lp300
Vstay
p301
aVhost
p302
aVrose
p303
aVt
p304
aVfresh
p305
aVwasn
p306
aVgreat
p307
aVlocat
p308
aVpark
p309
aVroommat
p310
aVmade
p311
aVexperi
p312
aVrose
p313
aVfriendli
p314
aVpark
p315
asV1055895
p316
(lp317
Vstay
p318
aVgot
p319
aVsay
p320
aVstay
p321
aVcameron
p322
ag5
aVcameron
p323
aVapart
p324
aVuse
p325
aVcameron
p326
aVplace
p327
aVdog
p328
aVstay
p329
aVpassword
p330
aVwifi
p331
asV5285725
p332
(lp333
Vperfect
p334
aVlive
p335
aVrelax
p336
aVperfect
p337
aVlive
p338
aVescap
p339
aVperfect
p340
aVcute
p341
aVmade
p342
aVstudio
p343
aVcommun
p344
aVjoyti
p345
ag304
aVdidn
p346
aVjoyti
p347
asV3441870
p348
(lp349
Vmonica
p350
aVapart
p351
aVstay
p352
aVmonica
p353
aVstay
p354
aVapart
p355
aVapart
p356
aVexperi
p357
aVhelp
p358
aVmonica
p359
aVapart
p360
aVstay
p361
aVus
p362
aVapart
p363
aVnice
p364
asV2326775
p365
(lp366
Vstay
p367
aVlove
p368
aVbright
p369
aVperfect
p370
aVlocat
p371
aVaround
p372
aVplace
p373
aVgreat
p374
ag5
aVhillari
p375
aVapart
p376
aVstay
p377
aVhillari
p378
aVstay
p379
aVgreat
p380
asV7492644
p381
(lp382
Vcomplex
p383
aVgym
p384
aVapart
p385
aVcook
p386
aVclean
p387
aVarea
p388
aVlot
p389
aVcook
p390
aVblock
p391
aVamen
p392
aVapart
p393
aVcomplex
p394
aVnice
p395
aVstation
p396
aVbart
p397
asV6516876
p398
(lp399
Vpriscilla
p400
aVapart
p401
aVawesom
p402
aVpriscilla
p403
aVplace
p404
aVrecommend
p405
aVpriscilla
p406
aVplace
p407
aVneed
p408
aVminut
p409
aVamaz
p410
aVgreat
p411
aVfirst
p412
aVdogpatch
p413
aVsf
p414
asV5957671
p415
(lp416
Vstay
p417
aVus
p418
aVgreat
p419
aVsinc
p420
aVmeet
p421
aVweek
p422
aVstay
p423
aVinstruct
p424
aVentir
p425
aVstay
p426
aVus
p427
aVlike
p428
aVget
p429
aVthank
p430
aVgreet
p431
asV7259880
p432
(lp433
Vhous
p434
aVmait
p435
aVroger
p436
aVus
p437
aVgood
p438
aVciti
p439
aVwir
p440
aVdie
p441
aVda
p442
aVroom
p443
aVclean
p444
aVbeach
p445
aVhous
p446
aVwell
p447
aVeasi
p448
asV277269
p449
(lp450
Vsf
p451
aVapart
p452
aVlocat
p453
aVstay
p454
aVsf
p455
aVapt
p456
aVarriv
p457
aVreserv
p458
aVcancel
p459
aVgreat
p460
aVapart
p461
aVstay
p462
aVchri
p463
aVplace
p464
aVstay
p465
asV808771
p466
(lp467
Vian
p468
aVgreat
p469
ag5
aVet
p470
aVun
p471
aVde
p472
aVian
p473
ag5
aVhome
p474
aVian
p475
aVgreat
p476
aVceylan
p477
aVian
p478
aVgreat
p479
aVstay
p480
asV8763407
p481
(lp482
Vhost
p483
aVwill
p484
aVgo
p485
aVhost
p486
aVgo
p487
aVwill
p488
aVduncan
p489
aVsort
p490
aVconsid
p491
aVgreat
p492
aVadventur
p493
aVgo
p494
aVhost
p495
aVwill
p496
aVadventur
p497
asV7697503
p498
(lp499
Varea
p500
aVnice
p501
aVtransport
p502
aVgreat
p503
aVhost
p504
aVwelcom
p505
aVtransport
p506
aVarea
p507
aVplace
p508
aVnice
p509
aVarea
p510
aVplace
p511
aVstay
p512
aVdayn
p513
aVtransport
p514
asV689433
p515
(lp516
Vgreat
p517
aVhost
p518
aVjoanna
p519
aVgreat
p520
aVfillmor
p521
aVpleasant
p522
aVapart
p523
aVfull
p524
aVcounter
p525
aVgreat
p526
aVstay
p527
aVlocat
p528
aVhost
p529
aVgreat
p530
aVjoanna
p531
asV4387067
p532
(lp533
Vstay
p534
aVjeffrey
p535
aVroom
p536
aVrealli
p537
aVroom
p538
aVnice
p539
aVrestaur
p540
aVlocat
p541
aVshop
p542
aVjeff
p543
aVstay
p544
aVrecommend
p545
aVroom
p546
aVstay
p547
aVjeff
p548
asV6120540
p549
(lp550
Vgreat
p551
aVplace
p552
aVpam
p553
aVstay
p554
aVphilip
p555
aVpam
p556
aVpam
p557
aVphilip
p558
aVhous
p559
aVhost
p560
aValso
p561
aVphilip
p562
aVnice
p563
aVcozi
p564
aVexperi
p565
asV1072791
p566
(lp567
Ves
p568
aVein
p569
aVplu
p570
aVelizabeth
p571
aVhome
p572
aVhous
p573
aVelizabeth
p574
aVstay
p575
aVhous
p576
aVelizabeth
p577
aVstay
p578
aVhome
p579
aVelizabeth
p580
aVroom
p581
aVnice
p582
asV5414237
p583
(lp584
Vgiovanna
p585
aVnice
p586
aVund
p587
aVlove
p588
aVhous
p589
aVwonder
p590
aVroom
p591
ag304
aVlocat
p592
aVgreat
p593
aVrobert
p594
aVclean
p595
aVstay
p596
aVclean
p597
aVwell
p598
asV3686496
p599
(lp600
Vneed
p601
aVstay
p602
aVlot
p603
aVclean
p604
aVthank
p605
aVsf
p606
aVdeena
p607
aVthank
p608
aVclean
p609
aVdeena
p610
aVthank
p611
aVclean
p612
aVsf
p613
aVdeena
p614
aVclean
p615
asV6403253
p616
(lp617
Vroom
p618
aVperfect
p619
aVsf
p620
aVnanci
p621
aVroom
p622
aVfind
p623
aVone
p624
aVroom
p625
aVsf
p626
aVperfect
p627
aVwell
p628
aVcomfort
p629
aVperfect
p630
aVroom
p631
aVlocat
p632
asV286231
p633
(lp634
Vlocat
p635
aVminut
p636
aVnic
p637
aVnic
p638
aVcolleagu
p639
aVarea
p640
aVstay
p641
aVplace
p642
aVgreat
p643
aVarriv
p644
aVclose
p645
aVlocat
p646
aVciti
p647
asV7348398
p648
(lp649
Vstay
p650
aVroom
p651
aVhelp
p652
aVconcern
p653
aVselect
p654
aVmade
p655
aVhome
p656
aVeveryth
p657
aVstay
p658
aVjoann
p659
aVmike
p660
aVview
p661
aVe
p662
aVhome
p663
aVneed
p664
asV7342996
p665
(lp666
Vjack
p667
aVhome
p668
aVhous
p669
aVfed
p670
aVend
p671
aVfrancisco
p672
aVjack
p673
aVhous
p674
aVdistrict
p675
aVjack
p676
aVlarg
p677
aVweek
p678
aVjack
p679
aVhous
p680
aVhome
p681
asV238190
p682
(lp683
Vbill
p684
aVgreat
p685
aVapart
p686
aVbill
p687
aVlocat
p688
aVroom
p689
aVbill
p690
aVgreat
p691
aVplace
p692
aVbill
p693
aVel
p694
aVla
p695
aVbill
p696
aVgreat
p697
aVlocat
p698
asV8583501
p699
(lp700
Vfelt
p701
aVhost
p702
aVcomfort
p703
aVvanessa
p704
aVthank
p705
aVfamili
p706
aVnice
p707
aVhost
p708
aVstay
p709
aVnice
p710
aVhighli
p711
aVrecommend
p712
aVnice
p713
aVhost
p714
aVstay
p715
asV664307
p716
(lp717
Vroom
p718
aVgeoff
p719
aVgreat
p720
aVde
p721
aVla
p722
aVpour
p723
aVroom
p724
aVmake
p725
aVpost
p726
aVgeoff
p727
aVroom
p728
aVmission
p729
aVgeoff
p730
aVplace
p731
aVstay
p732
asV7007759
p733
(lp734
Vsan
p735
aVrental
p736
aVseason
p737
aVcoat
p738
aVapart
p739
aVfrancisco
p740
aVcoat
p741
aVapart
p742
aVlack
p743
aVcoat
p744
aVday
p745
aVrack
p746
aVapart
p747
aVcoat
p748
aVregard
p749
asV8014046
p750
(lp751
Vvisit
p752
aVhome
p753
aVadult
p754
aVflexibl
p755
aVdrop
p756
aVsometh
p757
aVtime
p758
aVplace
p759
aVstephani
p760
aVtime
p761
aVplace
p762
aVstephani
p763
aVtime
p764
aVstephani
p765
aVthrow
p766
asV8617216
p767
(lp768
Vthank
p769
aVgreat
p770
aVhost
p771
aVhost
p772
aVblock
p773
aVthank
p774
aVstay
p775
aVlove
p776
aVgreat
p777
aVhost
p778
aVcomfort
p779
aVblock
p780
aVmark
p781
aVpark
p782
aVgood
p783
asV6688004
p784
(lp785
Vexperienc
p786
aVstart
p787
aVfinish
p788
aVlinda
p789
aVhome
p790
aVcomfort
p791
aVlinda
p792
aVstay
p793
ag5
aVstay
p794
aVlinda
p795
aVhome
p796
aVlinda
p797
aVstay
p798
aVus
p799
asV3029597
p800
(lp801
Valison
p802
aVstay
p803
aVroom
p804
aValison
p805
aVroom
p806
aVgreat
p807
aVhost
p808
aVciti
p809
aVroom
p810
aValison
p811
aVgreat
p812
aVroom
p813
aVcan
p814
aVsinc
p815
aVexperi
p816
asV332781
p817
(lp818
Vplace
p819
aVone
p820
aVcome
p821
aVgina
p822
aVlocat
p823
aVtime
p824
aVgina
p825
aVgreat
p826
aVstay
p827
aVgreat
p828
aVboyfriend
p829
aVnice
p830
aVgina
p831
aVstay
p832
aVroom
p833
asV6421172
p834
(lp835
g5
aVclean
p836
aVfriendli
p837
aVdog
p838
aVstay
p839
aVhost
p840
aVdog
p841
aVstay
p842
aVhost
p843
aVgreat
p844
aVlive
p845
aVexperi
p846
aVstay
p847
aVdog
p848
aVhost
p849
asV4512332
p850
(lp851
Veconom
p852
aVclean
p853
aVlocat
p854
aVget
p855
aVeasi
p856
aVlocat
p857
aVgreat
p858
aVcolleen
p859
aVapart
p860
aVarriv
p861
aVday
p862
aVeconom
p863
aVclean
p864
aVlocat
p865
asV1577582
p866
(lp867
Vhost
p868
aVthank
p869
aVart
p870
aVthank
p871
aVhost
p872
aVart
p873
aVart
p874
aVthank
p875
aVhost
p876
aVgreat
p877
aVfran
p878
aVhous
p879
aVthank
p880
aVhost
p881
aVhous
p882
asV1584021
p883
(lp884
Vrestaur
p885
aVde
p886
aVbrett
p887
aVde
p888
aVle
p889
aVun
p890
aVapart
p891
aVstay
p892
aVbrett
p893
aVapart
p894
aVbrett
p895
aVstay
p896
aVapart
p897
aVbrett
p898
aVplace
p899
asV4171151
p900
(lp901
Vapart
p902
aVsara
p903
aVclean
p904
aVlocat
p905
aVneed
p906
aVbook
p907
aVplace
p908
ag5
aVlocat
p909
aVstay
p910
aVgreat
p911
aVsara
p912
aVissu
p913
aVok
p914
aVgreat
p915
asV2177177
p916
(lp917
Vhanna
p918
aVquiet
p919
aVcheck
p920
aVexactli
p921
aVamen
p922
aVquiet
p923
aVapart
p924
aVgreat
p925
aVamen
p926
aVpark
p927
aVapart
p928
aVglen
p929
aVexactli
p930
aVamen
p931
aVquiet
p932
asV4061796
p933
(lp934
Vnice
p935
aVblock
p936
aVcaz
p937
aVrestaur
p938
aVrealli
p939
aVapart
p940
aVapart
p941
aVrealli
p942
aVrestaur
p943
aVapart
p944
aVrealli
p945
aVhost
p946
aVrealli
p947
aVapart
p948
aVpharmaci
p949
asV1197716
p950
(lp951
Vun
p952
aVde
p953
aVet
p954
aVget
p955
aVpark
p956
aVneed
p957
aVjeann
p958
aVapart
p959
aVplace
p960
aVgreat
p961
aVjeann
p962
aVstay
p963
aVstay
p964
aVplace
p965
aVgreat
p966
asV8066920
p967
(lp968
Vanswer
p969
aVprompt
p970
aVcentral
p971
aVcentral
p972
aVminut
p973
aVsuzann
p974
aVprompt
p975
aVanswer
p976
aVquestion
p977
aVbeauti
p978
aVgreat
p979
aVprompt
p980
aVanswer
p981
asV531494
p982
(lp983
Vdean
p984
aVclean
p985
aVlocat
p986
aVplace
p987
ag5
aVdean
p988
aVgreat
p989
aVdean
p990
aVplace
p991
aVstay
p992
aVlove
p993
aVkitchen
p994
aVapart
p995
aVdean
p996
aVstay
p997
asV939917
p998
(lp999
Vadul
p1000
aVhous
p1001
aVlocat
p1002
aVstay
p1003
aVphenomen
p1004
aVstay
p1005
aVlocat
p1006
aVeveryth
p1007
aVstay
p1008
aVlocat
p1009
aVcottag
p1010
aVstay
p1011
aVlocat
p1012
aVcentral
p1013
asV7116381
p1014
(lp1015
Vmoy
p1016
aVapart
p1017
aVclean
p1018
aVeasi
p1019
aVstay
p1020
aVlocat
p1021
aVlocat
p1022
aVclean
p1023
aVstay
p1024
aVmoy
p1025
aVcondo
p1026
aVlook
p1027
aVlocat
p1028
aVplace
p1029
aVhome
p1030
asV7968598
p1031
(lp1032
Vroom
p1033
aVspaciou
p1034
aVlove
p1035
aVapart
p1036
aVtwo
p1037
aValexi
p1038
aVquiet
p1039
aVsan
p1040
aVwelcom
p1041
aVlove
p1042
aVsan
p1043
aVspaciou
p1044
aVtwo
p1045
aVsan
p1046
aVquiet
p1047
asV7844031
p1048
(lp1049
Vstay
p1050
aVtrip
p1051
aVhost
p1052
aVplace
p1053
aVnext
p1054
aVway
p1055
aVbarri
p1056
aVfeel
p1057
aVprovid
p1058
aVaccommod
p1059
aVgraciou
p1060
aVnew
p1061
aVaccommod
p1062
aVvase
p1063
aVsan
p1064
asV2703266
p1065
(lp1066
Vday
p1067
aVarriv
p1068
aVstay
p1069
aVnice
p1070
aVfeel
p1071
aVday
p1072
aVarriv
p1073
aVreserv
p1074
aVday
p1075
aVcancel
p1076
aVarriv
p1077
aVhost
p1078
aVautom
p1079
aVpost
p1080
asV6784032
p1081
(lp1082
Vstraightforward
p1083
aVinform
p1084
aVlocal
p1085
aVgreat
p1086
aVwelcom
p1087
aVshop
p1088
aVstraightforward
p1089
aVinform
p1090
aVnoe
p1091
aVstraightforward
p1092
aVinform
p1093
aVpack
p1094
aVstraightforward
p1095
aVlocal
p1096
aVinform
p1097
asV5299461
p1098
(lp1099
Vhous
p1100
aVzain
p1101
ag5
aVpleas
p1102
aVsimpli
p1103
aVamaz
p1104
aVplace
p1105
aVstay
p1106
ag304
aVduncan
p1107
aVzain
p1108
aVgreat
p1109
ag5
aVgreat
p1110
aVduncan
p1111
asV5173405
p1112
(lp1113
Vlove
p1114
aVfriendli
p1115
aVhost
p1116
aVgreat
p1117
aVstay
p1118
aVhenri
p1119
aVgreat
p1120
aVeasi
p1121
aVspace
p1122
ag5
aVhenri
p1123
aVaway
p1124
aVarea
p1125
aVknowledg
p1126
aVrespect
p1127
asV1042292
p1128
(lp1129
Vgreat
p1130
aVchri
p1131
aVlocat
p1132
aVchri
p1133
aVplace
p1134
aVhost
p1135
aVgreat
p1136
aVplace
p1137
aVstay
p1138
aVchri
p1139
aVstay
p1140
aVplace
p1141
aVchri
p1142
aVplace
p1143
aVgreat
p1144
asV8052692
p1145
(lp1146
Vclean
p1147
aVroom
p1148
aVissu
p1149
aVroom
p1150
aVclean
p1151
aVjust
p1152
aVroom
p1153
aVclean
p1154
aVissu
p1155
aVclean
p1156
aVroom
p1157
aVissu
p1158
aVsoma
p1159
aValso
p1160
aVflat
p1161
asV2658295
p1162
(lp1163
Vstay
p1164
aVgreat
p1165
aVthank
p1166
aVtara
p1167
aVgreat
p1168
aVcommun
p1169
aVhotel
p1170
aVcheck
p1171
aVtara
p1172
aVairbnb
p1173
aVfirst
p1174
aVsuperb
p1175
aVlocat
p1176
aVservic
p1177
aVarea
p1178
asV3861272
p1179
(lp1180
Vrecommend
p1181
aVfriendli
p1182
aVgood
p1183
aVfriendli
p1184
aVkitchen
p1185
aVrestaur
p1186
aVlocat
p1187
aVaccommod
p1188
aVcole
p1189
aVhost
p1190
aVhome
p1191
aVus
p1192
aVplace
p1193
aVkid
p1194
aVcoffe
p1195
asV715469
p1196
(lp1197
Vgreat
p1198
aVlocat
p1199
aVstay
p1200
aVstay
p1201
aVdmitri
p1202
aVarriv
p1203
aVmission
p1204
aVstay
p1205
aVwill
p1206
aVroom
p1207
aVplace
p1208
aVgreat
p1209
aVroom
p1210
aVstay
p1211
aVsf
p1212
asV5708749
p1213
(lp1214
Vapart
p1215
aVmile
p1216
aVnew
p1217
aVstay
p1218
aVgreat
p1219
aVfriendli
p1220
aVlocat
p1221
aVclean
p1222
aVhost
p1223
aVview
p1224
aVhost
p1225
aVclean
p1226
aVroom
p1227
aVbuild
p1228
aVmodern
p1229
asV1069167
p1230
(lp1231
g304
aVplace
p1232
aVlocat
p1233
aVbob
p1234
aVroom
p1235
aVstay
p1236
aVla
p1237
aVde
p1238
aVet
p1239
aVla
p1240
aVbob
p1241
aVjenif
p1242
aVnice
p1243
asV760539
p1244
(lp1245
Vstay
p1246
aVarea
p1247
aVapart
p1248
aVplace
p1249
ag304
ag5
aVfriendli
p1250
aVclose
p1251
aVbart
p1252
ag5
aVstay
p1253
aVgreat
p1254
aVroom
p1255
aVgreat
p1256
aVlocat
p1257
asV2754912
p1258
(lp1259
Vlisa
p1260
aVstay
p1261
aVplace
p1262
aVlisa
p1263
aVstay
p1264
ag5
aVlisa
p1265
aVplace
p1266
ag5
aVlisa
p1267
aVstay
p1268
aVget
p1269
aVlisa
p1270
aVkevin
p1271
aVnice
p1272
asV2026910
p1273
(lp1274
Vbree
p1275
aVgreat
p1276
aVstay
p1277
aVbree
p1278
aVus
p1279
aVgreat
p1280
aVbree
p1281
aVapart
p1282
aVrecommend
p1283
aVbree
p1284
aVstay
p1285
ag5
aVbree
p1286
aVus
p1287
aVstay
p1288
asV8130678
p1289
(lp1290
Vwelcom
p1291
aVfriendli
p1292
aVbeat
p1293
aVdefinit
p1294
aVback
p1295
aVcat
p1296
aVback
p1297
aVrosi
p1298
aVdefinit
p1299
aVback
p1300
aVrosi
p1301
aVdefinit
p1302
aVhome
p1303
aVfeel
p1304
aVattract
p1305
asV6465835
p1306
(lp1307
Vshiyin
p1308
aVlocat
p1309
aVget
p1310
aVgreat
p1311
aVrealli
p1312
aVtime
p1313
aVsan
p1314
ag304
aVhelp
p1315
aVmani
p1316
aVlocat
p1317
aVgreat
p1318
aVmani
p1319
aVlocat
p1320
aVgreat
p1321
asV513230
p1322
(lp1323
Vgreat
p1324
aVciti
p1325
aVview
p1326
aVanita
p1327
aVplace
p1328
aVget
p1329
aVday
p1330
aVapart
p1331
aVquestion
p1332
aVday
p1333
aVday
p1334
asV7615879
p1335
(lp1336
Veven
p1337
aVget
p1338
ag304
aVnice
p1339
aVraghav
p1340
aVtwo
p1341
aVapart
p1342
aVbeauti
p1343
aVhost
p1344
aVplace
p1345
aVclean
p1346
aVstay
p1347
aVclean
p1348
aVenjoy
p1349
aVnew
p1350
asV1386564
p1351
(lp1352
Vpaulin
p1353
aVapart
p1354
aVgreat
p1355
aVpaulin
p1356
aVlocat
p1357
aVclean
p1358
aVwell
p1359
aVgreat
p1360
aVpaulin
p1361
aVclean
p1362
aVpaulin
p1363
aVroom
p1364
aVplace
p1365
asV213532
p1366
(lp1367
Vde
p1368
aVla
p1369
aVpa
p1370
aVjosh
p1371
aVroom
p1372
aVgreat
p1373
aVroom
p1374
aVjosh
p1375
aVstay
p1376
aVroom
p1377
aVgreat
p1378
aVstay
p1379
aVroom
p1380
aVarea
p1381
aVbathroom
p1382
asV1368789
p1383
(lp1384
Vkate
p1385
aVde
p1386
aVle
p1387
aVkate
p1388
aVund
p1389
aVder
p1390
aVkate
p1391
aVseem
p1392
aVgreat
p1393
aVroom
p1394
aVplace
p1395
aVkate
p1396
aVroom
p1397
aVstay
p1398
asV7788844
p1399
(lp1400
Vhost
p1401
aVapart
p1402
aVperfect
p1403
aVplace
p1404
aVgil
p1405
aVstay
p1406
aVnice
p1407
aVlocat
p1408
aVeveryth
p1409
aVtransport
p1410
aVeveryth
p1411
aVneed
p1412
aVgreat
p1413
aVcomfort
p1414
aVclean
p1415
asV3199784
p1416
(lp1417
Vnice
p1418
aVlocat
p1419
aVgreat
p1420
aVapart
p1421
aVmax
p1422
aVgreat
p1423
aVgreat
p1424
aVlocat
p1425
aVplace
p1426
aVmax
p1427
ag304
aVplace
p1428
aVmax
p1429
aVeven
p1430
aVget
p1431
asV683603
p1432
(lp1433
Vapart
p1434
aVandrew
p1435
ag5
aVlia
p1436
aVeasi
p1437
aVnice
p1438
aVperfect
p1439
aVeveryth
p1440
aVwant
p1441
aVapart
p1442
aVcan
p1443
aVissu
p1444
aVlia
p1445
aVnice
p1446
aVeasi
p1447
asV7310602
p1448
(lp1449
Vday
p1450
aVreserv
p1451
aVarriv
p1452
aVdaniel
p1453
aVwonder
p1454
aVstay
p1455
aVcancel
p1456
aVhost
p1457
aVarriv
p1458
aVhost
p1459
aVreserv
p1460
aVday
p1461
aVreserv
p1462
aVpost
p1463
aVday
p1464
asV1076743
p1465
(lp1466
Varriv
p1467
ag304
aVapart
p1468
aVjarret
p1469
aVapart
p1470
aVgreat
p1471
aVgreat
p1472
aVapart
p1473
aVclare
p1474
aVjarret
p1475
aVclare
p1476
aVstay
p1477
aVgreat
p1478
aVplace
p1479
ag5
asV7775182
p1480
(lp1481
Vstay
p1482
aVapart
p1483
aVmatt
p1484
aVapart
p1485
aVstay
p1486
aVenjoy
p1487
aVapart
p1488
aVstay
p1489
aVmatt
p1490
aVapart
p1491
aVstay
p1492
aVmatt
p1493
aVstay
p1494
aVapart
p1495
aVmatt
p1496
asV4401445
p1497
(lp1498
Vplace
p1499
aVextrem
p1500
aVpark
p1501
aVbest
p1502
aVplace
p1503
aVstun
p1504
aVpaul
p1505
aVstay
p1506
aVview
p1507
aVplace
p1508
aVbest
p1509
aVstun
p1510
aVplace
p1511
asV4100124
p1512
(lp1513
Vgreat
p1514
aVplace
p1515
aVapart
p1516
aVbrittani
p1517
aVstay
p1518
aVcomfort
p1519
aVstay
p1520
ag5
aVsuper
p1521
aVnice
p1522
aVlocat
p1523
aVplace
p1524
aVplace
p1525
aVus
p1526
aVbrittani
p1527
asV7973885
p1528
(lp1529
Veveryth
p1530
aVneed
p1531
aVlocat
p1532
aVre
p1533
aVlight
p1534
aVapart
p1535
aVlocat
p1536
aVneed
p1537
aVapart
p1538
aVweek
p1539
aVprovid
p1540
aVapart
p1541
aVlocat
p1542
aVeveryth
p1543
asV6181501
p1544
(lp1545
Vclean
p1546
aVpark
p1547
aVeveryth
p1548
aVgreat
p1549
aVapart
p1550
aVlocat
p1551
aVde
p1552
ag662
aVgreat
p1553
aVapart
p1554
aVclean
p1555
aVlocat
p1556
aVpark
p1557
aVpeopl
p1558
aVhost
p1559
asV8035531
p1560
(lp1561
Vday
p1562
aVreserv
p1563
aVarriv
p1564
aVday
p1565
aVreserv
p1566
aVarriv
p1567
aVday
p1568
aVsf
p1569
aVbeauti
p1570
aVday
p1571
aVcancel
p1572
aVpost
p1573
aVsuper
p1574
aVstay
p1575
aVnice
p1576
asV7004223
p1577
(lp1578
Vbriana
p1579
aVgym
p1580
aVuse
p1581
aVsuperb
p1582
aVbathroom
p1583
aVstay
p1584
aVgreat
p1585
aVmark
p1586
aVrelax
p1587
aVsuperb
p1588
aVprivat
p1589
aVplace
p1590
aVgreat
p1591
aVbriana
p1592
asV5816301
p1593
(lp1594
Vcon
p1595
aVgreat
p1596
aVcheck
p1597
aVrestaur
p1598
aVcon
p1599
aVget
p1600
aVcon
p1601
aVplace
p1602
aVstay
p1603
aVclean
p1604
aVstay
p1605
aVneighborhood
p1606
aVcon
p1607
aVapart
p1608
ag5
asV8627753
p1609
(lp1610
Vamaz
p1611
aVwelcom
p1612
aVstay
p1613
aVplace
p1614
aVstay
p1615
aVthank
p1616
aVstay
p1617
aVtri
p1618
aVvisit
p1619
aVtake
p1620
aVplace
p1621
aVcare
p1622
aVdafn
p1623
aVmake
p1624
aVtomasz
p1625
asV6691920
p1626
(lp1627
Vplace
p1628
aVgreat
p1629
aVzoe
p1630
aVexcel
p1631
aVeveryth
p1632
aVsf
p1633
aVus
p1634
aVgreat
p1635
aVbeauti
p1636
ag5
aVnice
p1637
aVperfect
p1638
aVapart
p1639
aVwelcom
p1640
aVaccommod
p1641
asV4411524
p1642
(lp1643
Vhelp
p1644
aVlink
p1645
aVtransport
p1646
aVstay
p1647
aVhelp
p1648
aVdowntown
p1649
aVhelp
p1650
aVtransport
p1651
aVstay
p1652
aVpeter
p1653
aVplace
p1654
aVgreat
p1655
aVgreat
p1656
aVtransport
p1657
aVdowntown
p1658
asV1017799
p1659
(lp1660
Vpost
p1661
aVautom
p1662
aVspace
p1663
aVbeauti
p1664
aVrealli
p1665
aVgood
p1666
aVrealli
p1667
aVhost
p1668
aVhost
p1669
aVarriv
p1670
aVday
p1671
aVgreat
p1672
aVexperi
p1673
aVclose
p1674
asV6446590
p1675
(lp1676
Vhost
p1677
aVpost
p1678
aVday
p1679
aVhost
p1680
aVarriv
p1681
aVhost
p1682
aVreserv
p1683
aVhost
p1684
aVreserv
p1685
aVday
p1686
aVkari
p1687
aVus
p1688
aVperfect
p1689
asV3258040
p1690
(lp1691
Vapart
p1692
aVcome
p1693
aVsf
p1694
aVview
p1695
aVstay
p1696
aVplace
p1697
aVet
p1698
aVde
p1699
aVla
p1700
aVstay
p1701
aVview
p1702
aVplace
p1703
aVperfect
p1704
aVplace
p1705
aVapart
p1706
asV538705
p1707
(lp1708
Vjosh
p1709
aVstay
p1710
aVhous
p1711
aVneighborhood
p1712
aVfamili
p1713
aVstay
p1714
aVhome
p1715
aVuse
p1716
aVhost
p1717
aVj
p1718
aVhous
p1719
aVgreat
p1720
aVstay
p1721
aVclean
p1722
aVfamili
p1723
asV931213
p1724
(lp1725
Vtimur
p1726
ag5
aVplace
p1727
aVtimur
p1728
aVlocat
p1729
aVplace
p1730
aVapart
p1731
aVgreat
p1732
aVtimur
p1733
aVpark
p1734
aVgreat
p1735
aVlocat
p1736
aVgreat
p1737
aVtimur
p1738
aVclean
p1739
asV3832296
p1740
(lp1741
Vmichael
p1742
aVstay
p1743
aVplace
p1744
aVmichael
p1745
aVstay
p1746
aVhous
p1747
aVplace
p1748
aVhost
p1749
aVnice
p1750
aVmichael
p1751
aVnice
p1752
aVstay
p1753
aVmichael
p1754
aVund
p1755
aVgreat
p1756
asV7358222
p1757
(lp1758
Vgood
p1759
aValso
p1760
aVlocat
p1761
aVclean
p1762
aVaround
p1763
aVplace
p1764
aVclean
p1765
aVroom
p1766
aVrestaur
p1767
aVroom
p1768
aVcan
p1769
ag304
aVclean
p1770
aVshower
p1771
aVplace
p1772
asV6248937
p1773
(lp1774
Vlocat
p1775
aVrecommend
p1776
aVsan
p1777
aVplace
p1778
aVnice
p1779
aVinstruct
p1780
aVrecommend
p1781
aVsan
p1782
aVlocat
p1783
aVrecommend
p1784
aVlocat
p1785
aVsan
p1786
aVlocat
p1787
aVhous
p1788
aVrecommend
p1789
asV2339939
p1790
(lp1791
Vstay
p1792
aVcan
p1793
aVbathroom
p1794
aVpavan
p1795
aVnice
p1796
aVstay
p1797
aVstay
p1798
aVshort
p1799
aVpavan
p1800
aVgreat
p1801
aVwalk
p1802
aVmin
p1803
aVplace
p1804
aVpavan
p1805
aVgo
p1806
asV231129
p1807
(lp1808
Vget
p1809
aVvalentino
p1810
aVtime
p1811
aVgreat
p1812
aVstay
p1813
aVus
p1814
aVgreat
p1815
aVclose
p1816
aVlocat
p1817
aVrent
p1818
aVvisit
p1819
aVpeopl
p1820
aVhous
p1821
aVplace
p1822
ag5
asV708862
p1823
(lp1824
Vthank
p1825
aVrebekah
p1826
aVgood
p1827
aVrebekah
p1828
aVplace
p1829
aVstay
p1830
aVstay
p1831
aVgreat
p1832
aVciti
p1833
aVrebekah
p1834
aVgreat
p1835
aVhost
p1836
aVrebekah
p1837
aVstay
p1838
aVplace
p1839
asV1267696
p1840
(lp1841
Vgreat
p1842
aVplace
p1843
aVclean
p1844
aVcassi
p1845
aVgreat
p1846
aVeveryth
p1847
aVcassi
p1848
aVapart
p1849
aVstay
p1850
aVplace
p1851
aVcassi
p1852
aVeasi
p1853
ag5
aVstudio
p1854
aVlocat
p1855
asV8033975
p1856
(lp1857
Vhost
p1858
aVeveryth
p1859
aVmade
p1860
aVhost
p1861
aVeveryth
p1862
aVmade
p1863
aVseamless
p1864
aVmade
p1865
aVeveryth
p1866
aVeveryth
p1867
aVhost
p1868
aVmade
p1869
aVhost
p1870
aVeveryth
p1871
aVseamless
p1872
asV1759087
p1873
(lp1874
Vgerardo
p1875
aVplace
p1876
aVstay
p1877
aVplace
p1878
aVunit
p1879
aVhome
p1880
aVnice
p1881
aVstay
p1882
aVcomfort
p1883
aVgreat
p1884
aVgerardo
p1885
aVstay
p1886
aVstay
p1887
aVplace
p1888
aVperfect
p1889
asV6416029
p1890
(lp1891
Ven
p1892
aVde
p1893
aVla
p1894
aVomar
p1895
aVstay
p1896
aVprompt
p1897
aVomar
p1898
aVstay
p1899
aVlocat
p1900
aVstay
p1901
aVplace
p1902
ag304
aVperfect
p1903
aVstay
p1904
aVaccommod
p1905
asV7115191
p1906
(lp1907
Vgreat
p1908
ag304
aVwednesday
p1909
aVday
p1910
aVhost
p1911
aVcancel
p1912
aVhost
p1913
aVday
p1914
aVarriv
p1915
aVwall
p1916
aVloft
p1917
aVeasi
p1918
ag304
aVdidn
p1919
aVlocat
p1920
asV957584
p1921
(lp1922
Vstay
p1923
aVlocat
p1924
aVapart
p1925
aVtommi
p1926
aVplace
p1927
aVview
p1928
aVview
p1929
aVplace
p1930
aVstay
p1931
aVview
p1932
aVtommi
p1933
aVday
p1934
aVgreat
p1935
aVview
p1936
aVplace
p1937
asV8552775
p1938
(lp1939
Vgo
p1940
aVask
p1941
aVamaz
p1942
aVjennif
p1943
aVeveryth
p1944
aVbetter
p1945
aVamaz
p1946
aVlocat
p1947
aVeasi
p1948
aVlocat
p1949
aVsan
p1950
aVrel
p1951
aVlocat
p1952
aVask
p1953
aVfran
p1954
asV3962084
p1955
(lp1956
Vroom
p1957
aVminut
p1958
aValway
p1959
aVmichael
p1960
ag5
aVhost
p1961
aVnice
p1962
aVhous
p1963
aVroom
p1964
aVplace
p1965
aVcomfort
p1966
aVgreat
p1967
aVplace
p1968
aVgood
p1969
aVput
p1970
asV1126828
p1971
(lp1972
g5
aVapart
p1973
aVdefinit
p1974
aVapart
p1975
aVvere
p1976
aVdmitri
p1977
aVel
p1978
ag16
aVapart
p1979
aVplace
p1980
aVlist
p1981
aVaccur
p1982
aVaway
p1983
aVshop
p1984
aVawesom
p1985
asV6881547
p1986
(lp1987
Vpleasant
p1988
aVeasi
p1989
aVclean
p1990
aVclean
p1991
aVquick
p1992
aVenviron
p1993
aVeasi
p1994
aVpleasant
p1995
aVquick
p1996
aVpleasant
p1997
aVeasi
p1998
aVenviron
p1999
aVroom
p2000
aVtext
p2001
aVbathroom
p2002
asV7150568
p2003
(lp2004
Vnice
p2005
aVmodern
p2006
aVunit
p2007
aVnice
p2008
aVstay
p2009
ag5
ag662
aVfoi
p2010
aVwelcom
p2011
aVplace
p2012
aVnice
p2013
aVapart
p2014
ag5
aVgreat
p2015
aVstudio
p2016
asV981913
p2017
(lp2018
Vapart
p2019
aVgreat
p2020
aVclean
p2021
ag5
aVapart
p2022
aVgreat
p2023
aVapart
p2024
aVplace
p2025
aVsalima
p2026
aVbeauti
p2027
aVapart
p2028
aVsalima
p2029
aVapart
p2030
aVnice
p2031
ag304
asV4730628
p2032
(lp2033
Vguy
p2034
aVclass
p2035
aVclass
p2036
aVguy
p2037
aVclass
p2038
aVguy
p2039
aVclass
p2040
aVguy
p2041
aVclass
p2042
aVguy
p2043
asV2172308
p2044
(lp2045
Vplace
p2046
aVgreat
p2047
aVhost
p2048
aVle
p2049
aVde
p2050
aVet
p2051
aVus
p2052
aVgreat
p2053
aVlocat
p2054
ag5
aVhome
p2055
aVstay
p2056
aVgreat
p2057
aVhous
p2058
asV89616
p2059
(lp2060
Vstay
p2061
aVplace
p2062
aVjon
p2063
aVjon
p2064
ag5
aVstay
p2065
aVjon
p2066
aVroom
p2067
aVnight
p2068
aVjon
p2069
aVgreat
p2070
aVview
p2071
aVjon
p2072
aVgreat
p2073
aVhost
p2074
asV7181461
p2075
(lp2076
Vhost
p2077
aVstay
p2078
aVplace
p2079
aVstay
p2080
aVus
p2081
aVneed
p2082
aVgreat
p2083
ag5
aVrecommend
p2084
aVapart
p2085
aVlocat
p2086
aVgreat
p2087
aVclean
p2088
aVbuild
p2089
aVarea
p2090
asV7181467
p2091
(lp2092
Vrobert
p2093
ag5
aVroom
p2094
aVrecommend
p2095
aVwalk
p2096
aVallow
p2097
aVsafe
p2098
aVquit
p2099
aVfriendli
p2100
aVarea
p2101
aVpublic
p2102
aVgreat
p2103
aVplace
p2104
aVhost
p2105
asV3306409
p2106
(lp2107
Valexandra
p2108
aVgreat
p2109
aVperfect
p2110
aVdefinit
p2111
aVstay
p2112
aVus
p2113
aVde
p2114
ag662
aVcom
p2115
aVhost
p2116
aVcancel
p2117
aVday
p2118
aVgreat
p2119
aVcomfort
p2120
aVwalk
p2121
asV4782281
p2122
(lp2123
Vlocat
p2124
aVstay
p2125
aVapart
p2126
aVstay
p2127
aVbed
p2128
aVapart
p2129
aVgreat
p2130
aVapart
p2131
aVlocat
p2132
aVgood
p2133
aVtime
p2134
aVgreat
p2135
aVstay
p2136
aVapart
p2137
aVdaniel
p2138
asV1428620
p2139
(lp2140
Vplace
p2141
aVgreat
p2142
ag1718
ag1718
aVgreat
p2143
aVloft
p2144
ag1718
aVgroup
p2145
aVplace
p2146
aVenjoy
p2147
aVgroup
p2148
aVweekend
p2149
aVplace
p2150
ag1718
aVamaz
p2151
asV4639434
p2152
(lp2153
Vhani
p2154
aVgreat
p2155
aVog
p2156
aVthank
p2157
aVarea
p2158
aVplace
p2159
aVhani
p2160
aVlocat
p2161
aVgreat
p2162
aVhani
p2163
aVstay
p2164
ag5
aVhani
p2165
aVgreat
p2166
aVrecommend
p2167
asV6387021
p2168
(lp2169
Vquiet
p2170
aVwilli
p2171
ag5
aVquiet
p2172
ag5
aVwilli
p2173
aVfelt
p2174
aVactual
p2175
aVquiet
p2176
aVgreat
p2177
aVbeach
p2178
aVclean
p2179
aVhome
p2180
aVtwo
p2181
aVclose
p2182
asV6077601
p2183
(lp2184
Vstay
p2185
aVnaveen
p2186
aVprivat
p2187
aVlocat
p2188
aVstay
p2189
aVroom
p2190
aVairbnb
p2191
aVsorri
p2192
aVsingh
p2193
aVnaveen
p2194
aVus
p2195
aVgreat
p2196
aVperfect
p2197
aVdefinit
p2198
aVexpertis
p2199
asV4297539
p2200
(lp2201
Vshawna
p2202
aVgreat
p2203
aVus
p2204
aVshawna
p2205
aVus
p2206
aVrecommend
p2207
aVde
p2208
aVet
p2209
aVnou
p2210
aVshawna
p2211
aVus
p2212
aVapart
p2213
aVshawna
p2214
aVgreat
p2215
aVplace
p2216
asV7245070
p2217
(lp2218
Vgroup
p2219
aVnice
p2220
aVlocat
p2221
aVgroup
p2222
aVhous
p2223
aVroom
p2224
aVlocat
p2225
aVnice
p2226
aVwell
p2227
aVspaciou
p2228
ag5
aVhous
p2229
aVlocat
p2230
aVnice
p2231
aVwell
p2232
asV8184928
p2233
(lp2234
Vrecommend
p2235
aVhighli
p2236
aVclean
p2237
aVrecommend
p2238
aVhighli
p2239
aVnice
p2240
aVhighli
p2241
aVrecommend
p2242
aVclean
p2243
aVterm
p2244
aVconveni
p2245
aVlove
p2246
aVrecommend
p2247
aVhighli
p2248
aVdescrib
p2249
asV6425800
p2250
(lp2251
Vaccommod
p2252
aVwalk
p2253
aVnoe
p2254
aVweek
p2255
aVmelissa
p2256
aVlike
p2257
aVlot
p2258
aVstay
p2259
aVgreat
p2260
aVmelissa
p2261
aVnice
p2262
aVstay
p2263
aVaccommod
p2264
aVnice
p2265
aVrealli
p2266
asV1125079
p2267
(lp2268
Vgreat
p2269
aVmom
p2270
aVway
p2271
aVlulu
p2272
aVstay
p2273
aVhome
p2274
aVstay
p2275
aVgreat
p2276
aVplace
p2277
aVwonder
p2278
aVdiffer
p2279
aVenjoy
p2280
aVde
p2281
aVet
p2282
aVle
p2283
asV3486460
p2284
(lp2285
Vemili
p2286
aVstay
p2287
aVroom
p2288
aVemili
p2289
aVund
p2290
aVstay
p2291
aVemili
p2292
aVplace
p2293
aVstay
p2294
aVemili
p2295
aVplace
p2296
aVgreat
p2297
aVemili
p2298
aVstay
p2299
aVhost
p2300
asV4925354
p2301
(lp2302
Vscott
p2303
aVtime
p2304
aVandrea
p2305
aVscott
p2306
aVarriv
p2307
aVplace
p2308
aVscott
p2309
aVnice
p2310
aVhost
p2311
aVlocat
p2312
aVwonder
p2313
aVthank
p2314
aVstay
p2315
aVgreat
p2316
asV1980028
p2317
(lp2318
Vfelix
p2319
aVstay
p2320
aVgreat
p2321
aVone
p2322
aVhome
p2323
aVbedroom
p2324
aVcheck
p2325
aVhost
p2326
aVtime
p2327
aVbook
p2328
aVfood
p2329
aVling
p2330
aVde
p2331
aVla
p2332
aVet
p2333
asV8565153
p2334
(lp2335
Vroom
p2336
aVrenov
p2337
aVdesk
p2338
aVsan
p2339
aVlove
p2340
aVfran
p2341
aVclean
p2342
aVcomfort
p2343
aVovernight
p2344
aVcheck
p2345
aVroom
p2346
aVnext
p2347
aVeveryth
p2348
aVperfect
p2349
aVclean
p2350
asV6389242
p2351
(lp2352
Vpretti
p2353
aVok
p2354
aVsee
p2355
aVsteve
p2356
aValso
p2357
aVlocat
p2358
aVsteve
p2359
aVset
p2360
aVrecommend
p2361
aVstay
p2362
aVrecommend
p2363
aVwelcom
p2364
aVsteve
p2365
aVset
p2366
aVdefinit
p2367
asV4887587
p2368
(lp2369
Vplace
p2370
aVgreat
p2371
aVlocat
p2372
aVstay
p2373
aVneed
p2374
aVciti
p2375
aVsuper
p2376
aVroom
p2377
aVfriendli
p2378
aVstay
p2379
aVprice
p2380
aVcool
p2381
aVenjoy
p2382
aVstay
p2383
aVplace
p2384
asV4264420
p2385
(lp2386
Vgreat
p2387
aVrecommend
p2388
aVhost
p2389
aVstay
p2390
aVnanci
p2391
aVwork
p2392
aVnanci
p2393
aVstay
p2394
ag5
aVnanci
p2395
aVgreat
p2396
aVplace
p2397
aVroom
p2398
aVtime
p2399
aVcheck
p2400
asV7438432
p2401
(lp2402
Vplace
p2403
aVstay
p2404
aVclean
p2405
aVgreat
p2406
aVlove
p2407
aVrecommend
p2408
aVvicki
p2409
aVus
p2410
aVhome
p2411
aVvicki
p2412
aVplace
p2413
aVdescript
p2414
asV7987834
p2415
(lp2416
Vmodern
p2417
aVplace
p2418
aVbunch
p2419
aVgreat
p2420
aVnear
p2421
aVlocat
p2422
aVwent
p2423
aVhost
p2424
aVsmoothli
p2425
aVhear
p2426
aVrestaur
p2427
aVwent
p2428
aVwent
p2429
aVmodern
p2430
aVhost
p2431
asV1821335
p2432
(lp2433
Vhostel
p2434
aVspace
p2435
aVrealli
p2436
aVexperi
p2437
aVfrancisco
p2438
aVsan
p2439
aVstay
p2440
aVhostel
p2441
aVpeopl
p2442
aVstay
p2443
aVfriendli
p2444
aVgreat
p2445
aVhostel
p2446
aVbed
p2447
aVgreat
p2448
asV4998450
p2449
(lp2450
Vstay
p2451
aVstun
p2452
aVtime
p2453
aVamaz
p2454
aVstun
p2455
aVjame
p2456
aVamaz
p2457
aVhous
p2458
aVjame
p2459
aVamaz
p2460
aVjame
p2461
aVtruli
p2462
aVfantast
p2463
aVamaz
p2464
aVexperi
p2465
asV6423158
p2466
(lp2467
Vstay
p2468
aVus
p2469
aValic
p2470
aVplace
p2471
aValic
p2472
aVstay
p2473
aValic
p2474
aVsan
p2475
aVgreat
p2476
aValic
p2477
aVplace
p2478
aVstay
p2479
aVstay
p2480
ag5
aValic
p2481
asV1612702
p2482
(lp2483
Vthea
p2484
aVstay
p2485
aVhous
p2486
aVet
p2487
aVde
p2488
aVnou
p2489
aVplace
p2490
aVcan
p2491
aVthea
p2492
aVthea
p2493
aVund
p2494
aVcarlo
p2495
ag662
aVthea
p2496
aVcarlo
p2497
asV3656251
p2498
(lp2499
Vstay
p2500
aVwell
p2501
aVblu
p2502
aVplace
p2503
aVblu
p2504
aVuse
p2505
aVgood
p2506
aVhost
p2507
aVnice
p2508
aVblu
p2509
aVwelcom
p2510
aVroom
p2511
aVroom
p2512
aVstay
p2513
aVdefinit
p2514
asV6639593
p2515
(lp2516
Vfine
p2517
aVair
p2518
aVsuper
p2519
aVfine
p2520
aVeurop
p2521
aVlast
p2522
aVsuper
p2523
aVuncomfort
p2524
aVeurop
p2525
aVsuper
p2526
aVfine
p2527
aVeurop
p2528
aVgreat
p2529
aVsleep
p2530
aVderek
p2531
asV149108
p2532
(lp2533
Vplace
p2534
aVvisit
p2535
aVmargaret
p2536
aVwonder
p2537
aVmargaret
p2538
aVstay
p2539
aVhome
p2540
aVbeauti
p2541
aVabsolut
p2542
aVbeauti
p2543
aVabsolut
p2544
aVhome
p2545
aVabsolut
p2546
aVbeauti
p2547
aVhome
p2548
asV700928
p2549
(lp2550
Vwalk
p2551
aVstay
p2552
aVnext
p2553
aVgreat
p2554
aVinn
p2555
aVissu
p2556
aVnob
p2557
aVnext
p2558
aVhill
p2559
aVhill
p2560
aVnob
p2561
aVstay
p2562
aVnext
p2563
aVhill
p2564
aVwalk
p2565
asV651624
p2566
(lp2567
Vlayn
p2568
aVbart
p2569
aVstay
p2570
aVstay
p2571
aVgreat
p2572
aVlayn
p2573
aVlayn
p2574
aVhous
p2575
ag5
aVlayn
p2576
aVstay
p2577
ag5
aVlayn
p2578
aVstay
p2579
aVgreat
p2580
asV1637123
p2581
(lp2582
Vrebekah
p2583
aVroom
p2584
aVus
p2585
aVstay
p2586
aVrebekah
p2587
aVdog
p2588
aVrebekah
p2589
aVgreat
p2590
aVnice
p2591
aVdog
p2592
aVrebekah
p2593
aVhost
p2594
aVrebekah
p2595
aVhous
p2596
aVstay
p2597
asV1267206
p2598
(lp2599
Vnanci
p2600
aVstay
p2601
aVcomfort
p2602
aVnanci
p2603
aVstay
p2604
aVhome
p2605
aVla
p2606
aVnou
p2607
aVnanci
p2608
ag5
aVconveni
p2609
aVhost
p2610
aVjust
p2611
aVvalley
p2612
asV4165008
p2613
(lp2614
Vus
p2615
aVplace
p2616
aVneighborhood
p2617
aVund
p2618
aVder
p2619
aVda
p2620
aVeveryth
p2621
aVwell
p2622
aVapart
p2623
aVcook
p2624
aVcool
p2625
aVprefer
p2626
aVstay
p2627
aVanthoni
p2628
aVgreat
p2629
asV1125115
p2630
(lp2631
Vfamili
p2632
aVstay
p2633
aVhous
p2634
aVstay
p2635
aVhome
p2636
aVplace
p2637
aVlulu
p2638
ag662
aVfoi
p2639
aVstay
p2640
aVlulu
p2641
ag5
aVgreat
p2642
aVhous
p2643
aVroom
p2644
asV1331461
p2645
(lp2646
Vstay
p2647
aVgreat
p2648
aVlocat
p2649
aVstay
p2650
aVgreat
p2651
aVbrandon
p2652
aVgreat
p2653
aVbrandon
p2654
aVus
p2655
aVstay
p2656
aVbrandon
p2657
ag5
aVgreat
p2658
aVbrandon
p2659
aVlocat
p2660
asV4816101
p2661
(lp2662
Vchip
p2663
aVhost
p2664
aVunit
p2665
aVneed
p2666
aVciti
p2667
aVus
p2668
aVeveryth
p2669
aVthank
p2670
aVjust
p2671
aVgreat
p2672
aVplace
p2673
aVsan
p2674
aVchip
p2675
ag5
aVnice
p2676
asV8506520
p2677
(lp2678
Vstay
p2679
aVhome
p2680
aVclose
p2681
aVtime
p2682
aVgreat
p2683
aVpublic
p2684
aVedina
p2685
aVtime
p2686
aVgreat
p2687
aVarea
p2688
ag5
aVticket
p2689
aVtime
p2690
aVpublic
p2691
aVclose
p2692
asV1692470
p2693
(lp2694
Vmission
p2695
aVkaren
p2696
aVgreat
p2697
aVstay
p2698
aVkaren
p2699
aVstay
p2700
aVgreat
p2701
aVkaren
p2702
aVplace
p2703
ag5
aVstay
p2704
aVkaren
p2705
aVplace
p2706
asV4556764
p2707
(lp2708
Vde
p2709
aVest
p2710
aVle
p2711
aVhost
p2712
aVclean
p2713
aVmade
p2714
aVus
p2715
aVhous
p2716
aVplace
p2717
aVhost
p2718
aVhome
p2719
aVstay
p2720
aVhome
p2721
aVstay
p2722
aVmake
p2723
asV1828458
p2724
(lp2725
Vnice
p2726
aVpark
p2727
aVus
p2728
aVclean
p2729
aVcouch
p2730
aVplace
p2731
aVrealli
p2732
aVrecommand
p2733
aVanywher
p2734
aVplace
p2735
aVlauri
p2736
aVgreat
p2737
aVet
p2738
aVplace
p2739
aVnou
p2740
asV7229467
p2741
(lp2742
Vday
p2743
aVclean
p2744
aVgreat
p2745
aVgreat
p2746
aVlocat
p2747
aVapart
p2748
aVus
p2749
aVplace
p2750
aVcarlo
p2751
aVfantast
p2752
aVclean
p2753
aVus
p2754
aVhalf
p2755
aVwell
p2756
aVoveral
p2757
asV3889219
p2758
(lp2759
Vjust
p2760
aVstreet
p2761
aVcomfort
p2762
aVplace
p2763
aVbook
p2764
aVbeauti
p2765
aVlocat
p2766
aVlike
p2767
aVcondo
p2768
aVnice
p2769
aVtime
p2770
aVstreet
p2771
aVwonder
p2772
aVapart
p2773
aVrespons
p2774
asV5512869
p2775
(lp2776
Vdavid
p2777
aVapart
p2778
aVplace
p2779
aVstay
p2780
ag5
aVlove
p2781
aVdavid
p2782
aVus
p2783
aVperfect
p2784
aVgreat
p2785
aVwonder
p2786
aVday
p2787
aVapart
p2788
aVlocat
p2789
aVdavid
p2790
asV7933407
p2791
(lp2792
Vvelmi
p2793
aVsan
p2794
aVfrancisco
p2795
aVplace
p2796
aVclean
p2797
aVspaciou
p2798
aVstay
p2799
aVavram
p2800
ag5
aVfrancisco
p2801
aVsan
p2802
aVclean
p2803
aVfrancisco
p2804
aVsan
p2805
aVclean
p2806
asV3560837
p2807
(lp2808
Vgreat
p2809
aVstay
p2810
aVperfect
p2811
aVashwin
p2812
aVview
p2813
aVplace
p2814
aVeasi
p2815
aVspace
p2816
aVclean
p2817
aVeasi
p2818
aVspace
p2819
aVclean
p2820
aVhelp
p2821
aVsan
p2822
aVfrancisco
p2823
asV3106067
p2824
(lp2825
Vgreat
p2826
aVjust
p2827
aVeveryth
p2828
aVroommat
p2829
aVsure
p2830
aVclean
p2831
aVrealli
p2832
aVhelp
p2833
aVhost
p2834
aVstay
p2835
aVchristian
p2836
aVapart
p2837
aVroom
p2838
aVperfect
p2839
aVideal
p2840
asV5806694
p2841
(lp2842
Vhost
p2843
aVneighborhood
p2844
aVnice
p2845
ag5
aVmission
p2846
aVplace
p2847
ag5
aVplace
p2848
aVmelissa
p2849
aVet
p2850
aVde
p2851
aVroom
p2852
aVcool
p2853
aVmission
p2854
asV238658
p2855
(lp2856
Vrita
p2857
aVstreet
p2858
aVpark
p2859
aVhost
p2860
aVroom
p2861
aVrita
p2862
aVrita
p2863
aVroom
p2864
aVstay
p2865
aVrita
p2866
aVroom
p2867
aVhous
p2868
aVnou
p2869
aVla
p2870
aVde
p2871
asV1598170
p2872
(lp2873
Vhous
p2874
aVlove
p2875
aVstay
p2876
aVstreet
p2877
aVapart
p2878
aVexperi
p2879
aVgreat
p2880
aVteresa
p2881
aVplace
p2882
aVclean
p2883
aVgreat
p2884
aVperfect
p2885
aVgreat
p2886
aVteresa
p2887
aVlocat
p2888
asV8208269
p2889
(lp2890
Vlocat
p2891
aVgreat
p2892
aVhighli
p2893
aVgreat
p2894
aVhost
p2895
aVhighli
p2896
aVlocat
p2897
aVgreat
p2898
aVrecommend
p2899
aVlocat
p2900
aVgreat
p2901
aVjulien
p2902
aVposit
p2903
aVcan
p2904
aVthing
p2905
asV2547844
p2906
(lp2907
Vwelcom
p2908
aVstay
p2909
aVgreat
p2910
aVgreat
p2911
aVmistak
p2912
aVmade
p2913
aVtime
p2914
aVus
p2915
aVkid
p2916
aVandrea
p2917
aVhous
p2918
aVus
p2919
aVwelcom
p2920
aVstay
p2921
aVgreat
p2922
asV2407150
p2923
(lp2924
Vquiet
p2925
aVaccommod
p2926
aVapart
p2927
aVaccommod
p2928
aVquiet
p2929
ag5
aVbixbi
p2930
aVstay
p2931
aVus
p2932
aVaccommod
p2933
aVquiet
p2934
ag5
aVaccommod
p2935
aVbeauti
p2936
aVneighborhood
p2937
asV4745604
p2938
(lp2939
Vraman
p2940
aVgreat
p2941
aVstay
p2942
aVclean
p2943
aVroom
p2944
aVinstruct
p2945
aVstay
p2946
aVraman
p2947
aVgreat
p2948
aVraman
p2949
aVplace
p2950
aVhelp
p2951
aVraman
p2952
ag5
aVclean
p2953
asV6481356
p2954
(lp2955
Vnice
p2956
ag304
aVlesli
p2957
aVhous
p2958
ag5
aVroom
p2959
aVspaciou
p2960
aVstay
p2961
aVroom
p2962
aVlesli
p2963
aVhelp
p2964
aVcomfort
p2965
aVspaciou
p2966
aVlocat
p2967
aVeveryth
p2968
asV2088622
p2969
(lp2970
Vla
p2971
aVle
p2972
aVil
p2973
aVkenix
p2974
aVstay
p2975
aVkenix
p2976
aVstay
p2977
aVroom
p2978
aVkenix
p2979
aVroom
p2980
aVstay
p2981
aVkenix
p2982
aVroom
p2983
aVstay
p2984
asV8623744
p2985
(lp2986
Veasi
p2987
aVemploye
p2988
aVaccess
p2989
aVmilli
p2990
aVhost
p2991
aVapart
p2992
aVeasi
p2993
aVwork
p2994
aVemploye
p2995
aVlocat
p2996
aVanoth
p2997
aVeasi
p2998
aVemploye
p2999
aVincred
p3000
aVeasi
p3001
asV6001463
p3002
(lp3003
Valamo
p3004
ag5
aVcoffe
p3005
aVlocat
p3006
aVlaundromat
p3007
aVwell
p3008
aVspace
p3009
aVcoffe
p3010
aVmike
p3011
aVground
p3012
ag5
aVwell
p3013
aValamo
p3014
asV7117778
p3015
(lp3016
Vgreat
p3017
aVus
p3018
aValexandr
p3019
aVminut
p3020
aValex
p3021
aVarea
p3022
aVmuy
p3023
ag16
aVapart
p3024
aVplace
p3025
aVpeopl
p3026
aVcharg
p3027
aVplace
p3028
aVclean
p3029
aVbeach
p3030
asV8014
p3031
(lp3032
Vjia
p3033
aVgood
p3034
aVstay
p3035
aVjaim
p3036
aVhous
p3037
aVlocat
p3038
aVgreat
p3039
aVstay
p3040
aVjia
p3041
ag304
aVjia
p3042
aVroom
p3043
aVjia
p3044
aVstay
p3045
aVhous
p3046
asV8670914
p3047
(lp3048
Varriv
p3049
aVpost
p3050
aVday
p3051
aVcancel
p3052
aVreserv
p3053
aVautom
p3054
aVarriv
p3055
aVpost
p3056
aVautom
p3057
aVarriv
p3058
aVhost
p3059
aVcancel
p3060
aVreserv
p3061
aVarriv
p3062
asV898833
p3063
(lp3064
Vwill
p3065
aVdefinit
p3066
aVneighborhood
p3067
aVstay
p3068
aVroom
p3069
aVtrip
p3070
aVpolina
p3071
aVroom
p3072
aVhous
p3073
aVwill
p3074
aVdefinit
p3075
aVneighborhood
p3076
aVpolina
p3077
ag5
aVgreat
p3078
asV3304131
p3079
(lp3080
Vami
p3081
aVroom
p3082
aVmichael
p3083
aVhous
p3084
aVhost
p3085
aVami
p3086
aVami
p3087
aVmichael
p3088
aVstay
p3089
aVdie
p3090
aVwir
p3091
aVhaben
p3092
aVus
p3093
ag304
aVlittl
p3094
asV6765256
p3095
(lp3096
Vmoscon
p3097
aVpeopl
p3098
aVgreat
p3099
aVgreat
p3100
aVairbnb
p3101
aVtime
p3102
aVgreat
p3103
aVmoscon
p3104
aVpeopl
p3105
aVgreat
p3106
aVlocat
p3107
aVpeopl
p3108
aVstay
p3109
aVgreat
p3110
aVcarolin
p3111
asV2721834
p3112
(lp3113
Vpark
p3114
aVtime
p3115
aVlittl
p3116
aVfrancisco
p3117
aVsan
p3118
aVapart
p3119
aVapart
p3120
aVgreat
p3121
aVstation
p3122
aVstay
p3123
aVgreat
p3124
aVplace
p3125
aVapart
p3126
aVbart
p3127
aVlot
p3128
asV6678078
p3129
(lp3130
g5
aVroom
p3131
aValena
p3132
aValena
p3133
aVstay
p3134
aVus
p3135
aVdefinit
p3136
aVgood
p3137
aVroom
p3138
aVstay
p3139
aVgood
p3140
aVroom
p3141
ag5
aVroom
p3142
aVlocat
p3143
asV2326165
p3144
(lp3145
Vet
p3146
aVle
p3147
aValic
p3148
aVflat
p3149
aVus
p3150
aVde
p3151
aVen
p3152
aVque
p3153
aValic
p3154
aVund
p3155
aVwar
p3156
aValic
p3157
aVstay
p3158
aVplace
p3159
asV2485508
p3160
(lp3161
Vplace
p3162
aVkri
p3163
aVstay
p3164
aVkri
p3165
aVstay
p3166
aVgreat
p3167
aVkri
p3168
aVdog
p3169
aVgreat
p3170
aVgreat
p3171
aVapart
p3172
aVnice
p3173
aVus
p3174
aVkri
p3175
aValso
p3176
asV7826630
p3177
(lp3178
Vnice
p3179
aVfriendli
p3180
aVmate
p3181
aVhous
p3182
aVsafe
p3183
aVtram
p3184
aVnice
p3185
aVclean
p3186
aVcondit
p3187
aVnice
p3188
aVenjoy
p3189
aVmate
p3190
aVclean
p3191
aVnois
p3192
aVroom
p3193
asV3469030
p3194
(lp3195
Vwalk
p3196
aVwork
p3197
aVgreat
p3198
aVplace
p3199
aVstay
p3200
aVsehr
p3201
aValso
p3202
aVpaul
p3203
aVloft
p3204
aVloft
p3205
aVgreat
p3206
aVpaul
p3207
aVpaul
p3208
aVnice
p3209
aVhelp
p3210
asV1762727
p3211
(lp3212
Vjan
p3213
aVpark
p3214
aVstudio
p3215
aVstudio
p3216
aVstay
p3217
aVjan
p3218
aVgreat
p3219
aVcastro
p3220
aVstay
p3221
aVarriv
p3222
aVday
p3223
aVperfect
p3224
aVhost
p3225
aVstay
p3226
aVcan
p3227
asV5729018
p3228
(lp3229
Vcomfort
p3230
aVplace
p3231
aVneed
p3232
aVapart
p3233
aVemili
p3234
aVgreat
p3235
ag5
aVstay
p3236
aVemili
p3237
ag5
aVstay
p3238
aVapart
p3239
aVstay
p3240
aVapart
p3241
aVemili
p3242
asV7805578
p3243
(lp3244
Vdecor
p3245
aVcoffe
p3246
aVthank
p3247
aVdecor
p3248
aVwindi
p3249
aVthank
p3250
aVplace
p3251
aVgreat
p3252
aVwindi
p3253
aVwindi
p3254
aVshop
p3255
aVcoffe
p3256
aVdecor
p3257
aVthank
p3258
aVenjoy
p3259
asV3130732
p3260
(lp3261
Vtime
p3262
aVgood
p3263
aVget
p3264
aVdaniel
p3265
aVhous
p3266
aVinform
p3267
aVgood
p3268
aVstay
p3269
aVdaniel
p3270
aVroom
p3271
aVsmell
p3272
aVhost
p3273
aVdaniel
p3274
aVgreat
p3275
aVplace
p3276
asV3009990
p3277
(lp3278
Vgreat
p3279
aVdidn
p3280
ag304
aVus
p3281
aVwelcom
p3282
aVhost
p3283
ag5
aVplace
p3284
aVdenis
p3285
aVgood
p3286
aVhous
p3287
aVtime
p3288
aVund
p3289
aVdie
p3290
aVist
p3291
asV7309852
p3292
(lp3293
Veveryth
p3294
aVhost
p3295
aVneed
p3296
aVhost
p3297
aVeveryth
p3298
aVclean
p3299
aVeveryth
p3300
aVhost
p3301
aVneed
p3302
aVstay
p3303
aVdefinit
p3304
aVbright
p3305
aVhost
p3306
aVclean
p3307
aVneed
p3308
asV8191958
p3309
(lp3310
Vgreat
p3311
aVsf
p3312
aVtime
p3313
aVstay
p3314
aVhost
p3315
ag5
aVhost
p3316
aVnice
p3317
ag5
aVstay
p3318
aVhost
p3319
aVnice
p3320
aVgreat
p3321
aVapart
p3322
aVspot
p3323
asV2436131
p3324
(lp3325
Vclean
p3326
ag5
aVnice
p3327
aVroom
p3328
aVstay
p3329
aVhotel
p3330
aVlocat
p3331
aVhotel
p3332
ag304
ag5
aVplace
p3333
aVgreat
p3334
aVgreat
p3335
aVclean
p3336
aVlocat
p3337
asV4663060
p3338
(lp3339
Vmark
p3340
aVstreet
p3341
aVplace
p3342
aVmark
p3343
ag5
aVplace
p3344
aVgreat
p3345
aVmark
p3346
aVstay
p3347
aVmark
p3348
aVstay
p3349
aVus
p3350
asV440058
p3351
(lp3352
Vday
p3353
aVarriv
p3354
aVautom
p3355
aVgreat
p3356
aVprice
p3357
aVplace
p3358
aVday
p3359
aVarriv
p3360
aVautom
p3361
aValison
p3362
aVplan
p3363
aVlot
p3364
aVday
p3365
aVarriv
p3366
aVcancel
p3367
asV1037198
p3368
(lp3369
Vhome
p3370
aVstephani
p3371
aVbeauti
p3372
aVstay
p3373
aVquiet
p3374
aVapart
p3375
aVplace
p3376
aVstephani
p3377
aVhome
p3378
aVgreat
p3379
aVstephani
p3380
ag5
aVcomfort
p3381
aVperfect
p3382
aVproblem
p3383
asV38607
p3384
(lp3385
Vjonathan
p3386
aVstay
p3387
aVhost
p3388
aVjonathan
p3389
aVstay
p3390
ag5
aVjonathan
p3391
aVstay
p3392
aVnice
p3393
aVroom
p3394
aVmani
p3395
aVpark
p3396
aVjonathan
p3397
aVgreat
p3398
aVstay
p3399
asV4787253
p3400
(lp3401
Vmeg
p3402
aVapart
p3403
ag5
aVmeg
p3404
aVplace
p3405
aVus
p3406
aVus
p3407
ag5
aVmeg
p3408
aVdie
p3409
aVnice
p3410
aVein
p3411
aVstay
p3412
aVplace
p3413
aVmeg
p3414
asV1107233
p3415
(lp3416
Vgreat
p3417
aVshop
p3418
aVrestaur
p3419
aVapart
p3420
aVgreat
p3421
aVmission
p3422
aVstay
p3423
aVplace
p3424
aVgreat
p3425
aVgreat
p3426
aVapart
p3427
aVclean
p3428
aVspot
p3429
aVshop
p3430
aVright
p3431
asV7534836
p3432
(lp3433
Vweather
p3434
aVdescrib
p3435
aVexactli
p3436
aVcolleagu
p3437
aVmeet
p3438
aVenjoy
p3439
aVjerri
p3440
aVstay
p3441
aVhelp
p3442
aVquestion
p3443
aVhost
p3444
aVwonder
p3445
ag5
aVapart
p3446
aVeasi
p3447
asV4013740
p3448
(lp3449
Vhanna
p3450
aVapart
p3451
aVgreat
p3452
aVlocat
p3453
aVhanna
p3454
aVplace
p3455
aVlocat
p3456
aVapart
p3457
aVwalk
p3458
aVstay
p3459
aVhanna
p3460
aVlocat
p3461
aVgreat
p3462
aVrealli
p3463
aVhost
p3464
asV1931937
p3465
(lp3466
Vrealli
p3467
aVnoami
p3468
aVlike
p3469
aVfriendli
p3470
aVplace
p3471
aVflexibl
p3472
aVus
p3473
aVhost
p3474
aVgreat
p3475
aVnice
p3476
aVgreat
p3477
aVtime
p3478
aVstay
p3479
aVnoami
p3480
aVus
p3481
asV7178670
p3482
(lp3483
Vplace
p3484
aVbed
p3485
aVryan
p3486
aVgood
p3487
aVryan
p3488
aVus
p3489
aVeveryth
p3490
aVperfect
p3491
aVcan
p3492
aVryan
p3493
aVhost
p3494
aVtime
p3495
aVeveryth
p3496
aVhost
p3497
aVtime
p3498
asV6115330
p3499
(lp3500
Vrealli
p3501
aVgreat
p3502
aVmaura
p3503
aVroom
p3504
aVgreat
p3505
aVclean
p3506
aVroom
p3507
aVmaura
p3508
aVget
p3509
aVmission
p3510
aVist
p3511
aVright
p3512
aVund
p3513
aVmaura
p3514
aVlocat
p3515
asV8255072
p3516
(lp3517
Vnice
p3518
aVlarri
p3519
aVcoffe
p3520
aVcoffe
p3521
aVlocat
p3522
aVbed
p3523
aVnice
p3524
aVbed
p3525
aVcoffe
p3526
aVlarri
p3527
aVus
p3528
aVcomfort
p3529
aVnice
p3530
aVbed
p3531
aVcoffe
p3532
asV213216
p3533
(lp3534
Vet
p3535
aVde
p3536
aVsaundra
p3537
aVhous
p3538
aVwell
p3539
aVwill
p3540
aVhome
p3541
aVwant
p3542
aVhous
p3543
aVsaundra
p3544
aVgreat
p3545
aVstay
p3546
aVsaundra
p3547
ag5
asV2825966
p3548
(lp3549
Vapart
p3550
aVus
p3551
aVgreat
p3552
aVapart
p3553
aVquiet
p3554
aVjohn
p3555
aVstay
p3556
aVplace
p3557
aVhost
p3558
ag662
aVlove
p3559
aVjohn
p3560
ag5
aVplace
p3561
asV1093088
p3562
(lp3563
Vluca
p3564
aVgood
p3565
aVest
p3566
aVgreat
p3567
aVhost
p3568
aVluca
p3569
aVluca
p3570
aVplace
p3571
aVgreat
p3572
aVluca
p3573
aVet
p3574
aVle
p3575
aVstay
p3576
aVgreat
p3577
aVhost
p3578
asV878045
p3579
(lp3580
Vwesley
p3581
aVstay
p3582
aVapart
p3583
aVplace
p3584
aVexactli
p3585
aVstay
p3586
aVdescrib
p3587
ag5
aVplace
p3588
aVdescrib
p3589
ag5
aVplace
p3590
aVdescrib
p3591
ag5
aVplace
p3592
asV584402
p3593
(lp3594
g5
aVhannah
p3595
aVgreat
p3596
aVsafe
p3597
aVspace
p3598
aVlive
p3599
aVarea
p3600
aVwalk
p3601
aVhannah
p3602
aVhannah
p3603
ag5
aVstay
p3604
aVapart
p3605
ag5
aVus
p3606
asV2659694
p3607
(lp3608
Vgreat
p3609
aVnice
p3610
aVlocat
p3611
aVstay
p3612
aVroom
p3613
aVrestaur
p3614
aVtotal
p3615
aVfriendli
p3616
aVenough
p3617
aVus
p3618
aVtime
p3619
aVgreat
p3620
aVplace
p3621
aVjess
p3622
aVflexibl
p3623
asV7068352
p3624
(lp3625
Vlocal
p3626
aVwelcom
p3627
aVhost
p3628
aVwelcom
p3629
aVlocat
p3630
aVlocal
p3631
aVshare
p3632
aVwonder
p3633
aVconveni
p3634
aVlocat
p3635
aVlocal
p3636
aVhost
p3637
aVlocat
p3638
aVlocal
p3639
aVhost
p3640
asV2918138
p3641
(lp3642
Vuniqu
p3643
aVatmospher
p3644
aVentrepreneur
p3645
aVplace
p3646
aVhous
p3647
aVwork
p3648
aVstay
p3649
aVstartup
p3650
aVhous
p3651
aVreserv
p3652
aVcancel
p3653
aVpost
p3654
aVgreat
p3655
aVpeopl
p3656
aVwork
p3657
asV4983944
p3658
(lp3659
Veveryth
p3660
aVperfect
p3661
aVperfect
p3662
aVeveryth
p3663
aVeveryth
p3664
aVperfect
p3665
aVeveryth
p3666
aVperfect
p3667
aVeveryth
p3668
aVperfect
p3669
asV7750327
p3670
(lp3671
Vwalk
p3672
aVgreat
p3673
aVstay
p3674
aVnice
p3675
aVplace
p3676
aVroom
p3677
aVgreat
p3678
aVkristina
p3679
aVroom
p3680
aVle
p3681
aVqui
p3682
aVnou
p3683
aVstay
p3684
aVkristina
p3685
aVhous
p3686
asV318056
p3687
(lp3688
Vplace
p3689
aVtime
p3690
aVjoe
p3691
aVgreat
p3692
aVlocat
p3693
aVcoffe
p3694
aVapart
p3695
aVjoe
p3696
aVstreet
p3697
aVgreat
p3698
aVlocat
p3699
aVjoe
p3700
aVright
p3701
aVarriv
p3702
aVrecommend
p3703
asV77932
p3704
(lp3705
g5
ag304
aVmaria
p3706
aVhous
p3707
aVmaria
p3708
aVstay
p3709
aVle
p3710
aVet
p3711
aVbien
p3712
aVwir
p3713
aVnicht
p3714
aVun
p3715
aVhost
p3716
aVbu
p3717
aVfriendli
p3718
asV4070277
p3719
(lp3720
Vus
p3721
aVmanon
p3722
aVgreat
p3723
aVmanon
p3724
aVgreat
p3725
aVroom
p3726
aVgreat
p3727
aVmanon
p3728
aVgood
p3729
aVhous
p3730
aVstay
p3731
aVlocat
p3732
aVamaz
p3733
aVmanon
p3734
aVpatrick
p3735
asV2502786
p3736
(lp3737
Vplace
p3738
aVshaun
p3739
ag5
aVlocat
p3740
aVhome
p3741
aVmade
p3742
aVshaun
p3743
aVgreat
p3744
aVplace
p3745
aVshaun
p3746
aVstay
p3747
aVplace
p3748
aVbeauti
p3749
aVroom
p3750
aValway
p3751
asV6716377
p3752
(lp3753
Vwant
p3754
aVnice
p3755
aVbu
p3756
aVget
p3757
aVday
p3758
aVfeel
p3759
aVpost
p3760
aVreserv
p3761
aVeasi
p3762
aVfollow
p3763
aVlocat
p3764
aVget
p3765
aVhost
p3766
ag304
asV3675302
p3767
(lp3768
Vhous
p3769
aVstay
p3770
aVlove
p3771
aVbeach
p3772
aVstreet
p3773
aVacross
p3774
aVhous
p3775
aVdownstair
p3776
aVheat
p3777
aVgreat
p3778
aVplace
p3779
aVeveryth
p3780
aVhous
p3781
aVhost
p3782
aVone
p3783
asV6896339
p3784
(lp3785
Vcheck
p3786
aVclose
p3787
aVapart
p3788
aVwill
p3789
aVperfect
p3790
aVcall
p3791
aVlocat
p3792
aVcouldn
p3793
aVvisit
p3794
aVapart
p3795
aVclose
p3796
aVperfect
p3797
aVknow
p3798
aVcall
p3799
aVperfect
p3800
asV720811
p3801
(lp3802
Vcheri
p3803
aVstay
p3804
aVgreat
p3805
aVcheri
p3806
aVron
p3807
aVapart
p3808
aVper
p3809
aVmolto
p3810
aVtime
p3811
aVcheri
p3812
aVron
p3813
aVstay
p3814
aVpark
p3815
aVplace
p3816
aVgreat
p3817
asV2243685
p3818
(lp3819
Vlocat
p3820
aVbradley
p3821
aVaccommod
p3822
aVaccommod
p3823
aVgem
p3824
aVlocat
p3825
aVbradley
p3826
aVcomfort
p3827
aVstay
p3828
aVlocat
p3829
aVgem
p3830
aVaccommod
p3831
aVlove
p3832
aVlocat
p3833
aVaccommod
p3834
asV8845157
p3835
(lp3836
Vhelp
p3837
aVstay
p3838
aVdescrib
p3839
aVstay
p3840
aVdescrib
p3841
aVplace
p3842
aVsam
p3843
ag5
aVgreat
p3844
aVplace
p3845
aVhelp
p3846
ag5
aVstay
p3847
aVexactli
p3848
aVgreat
p3849
asV5204426
p3850
(lp3851
Vhous
p3852
aVgreat
p3853
aVstay
p3854
aVhous
p3855
aVstay
p3856
aVgreat
p3857
aVhous
p3858
aVstay
p3859
aVgreat
p3860
aVstop
p3861
aVfound
p3862
aVhous
p3863
aVbeauti
p3864
aVcenter
p3865
asV2047469
p3866
(lp3867
Vde
p3868
aVet
p3869
aVle
p3870
aVund
p3871
aVist
p3872
aVkenix
p3873
aVshare
p3874
aVhome
p3875
aVinform
p3876
aVkenix
p3877
aVstay
p3878
aVroom
p3879
aVkenix
p3880
aVroom
p3881
aVrealli
p3882
asV7161943
p3883
(lp3884
Vre
p3885
aVpacif
p3886
aVsearch
p3887
aVgood
p3888
aVsearch
p3889
aVgoogl
p3890
aVre
p3891
aVinvit
p3892
aVgarag
p3893
aVpacif
p3894
aVarriv
p3895
aVgoogl
p3896
aVstay
p3897
aVhous
p3898
aVequip
p3899
asV564615
p3900
(lp3901
Vkate
p3902
aVstay
p3903
aVapart
p3904
aVkate
p3905
aVfirst
p3906
aVapart
p3907
aVgreat
p3908
aVus
p3909
aVrealli
p3910
aVkate
p3911
aVstay
p3912
aVpark
p3913
aVkate
p3914
aVapart
p3915
aVstay
p3916
asV6732047
p3917
(lp3918
Vgreat
p3919
aVshort
p3920
aVtime
p3921
aVandrew
p3922
aVexperi
p3923
aVcondo
p3924
aVgreat
p3925
aVbig
p3926
aVroom
p3927
aVandrew
p3928
aVhost
p3929
aVaccommod
p3930
aVandrew
p3931
aVgreat
p3932
aVhost
p3933
asV1130628
p3934
(lp3935
Vroom
p3936
aVstay
p3937
aVhaight
p3938
aVlocat
p3939
aVpark
p3940
aVgood
p3941
aVund
p3942
aVda
p3943
aVde
p3944
aVplace
p3945
aVgreat
p3946
aVlocat
p3947
aVroom
p3948
aVplace
p3949
aVclean
p3950
asV3289683
p3951
(lp3952
Vmaryanna
p3953
aVwelcom
p3954
aVcare
p3955
aVarriv
p3956
aVwelcom
p3957
aVpost
p3958
aVstay
p3959
aVnice
p3960
aVmake
p3961
aVaccomod
p3962
aVarriv
p3963
aVwelcom
p3964
aVmaryanna
p3965
aVroom
p3966
aVmeet
p3967
asV4638678
p3968
(lp3969
Vroom
p3970
aVhotel
p3971
aVgreat
p3972
aVlocat
p3973
aVroom
p3974
aVgood
p3975
aVroom
p3976
aVclean
p3977
aVbathroom
p3978
aVstay
p3979
ag304
aVplace
p3980
aVroom
p3981
aVstay
p3982
aVlocat
p3983
asV2629294
p3984
(lp3985
Vlove
p3986
aVhome
p3987
aVus
p3988
aVflat
p3989
ag5
aVneighborhood
p3990
aVliza
p3991
aVamaz
p3992
aVflat
p3993
aVlike
p3994
aVstay
p3995
aVhome
p3996
aVliza
p3997
aVdie
p3998
aVwar
p3999
asV4510438
p4000
(lp4001
Vlaura
p4002
aVset
p4003
aVroof
p4004
aVloft
p4005
aVgreat
p4006
aVclean
p4007
aVcancel
p4008
aVreserv
p4009
aVlaura
p4010
aVkey
p4011
ag5
aVcentral
p4012
aVperfectli
p4013
aVstyle
p4014
asV8907507
p4015
(lp4016
Voveral
p4017
aVlocat
p4018
aVneed
p4019
aVgreat
p4020
aVclean
p4021
aVhost
p4022
aVloft
p4023
aVlocat
p4024
aVgo
p4025
aVlocat
p4026
aVoveral
p4027
aVneed
p4028
aVorigin
p4029
aVneed
p4030
aVminut
p4031
asV1898173
p4032
(lp4033
Vwork
p4034
aVarea
p4035
aVaway
p4036
aVnandi
p4037
aVpark
p4038
aVapart
p4039
aVgood
p4040
aVnandi
p4041
aVplace
p4042
aVnandi
p4043
aVplace
p4044
aVus
p4045
aVnandi
p4046
aVplace
p4047
aVapart
p4048
asV550932
p4049
(lp4050
Vperfect
p4051
aVflat
p4052
aVeveryth
p4053
aVapart
p4054
aVplace
p4055
aVstay
p4056
aVkeri
p4057
aVwalk
p4058
aVcheck
p4059
aVplace
p4060
aVkeri
p4061
aVenjoy
p4062
aVlarg
p4063
aVhost
p4064
aVrel
p4065
asV5070961
p4066
(lp4067
Vtold
p4068
aVus
p4069
aVroommat
p4070
aVshortli
p4071
aVfirst
p4072
aVtown
p4073
aVarriv
p4074
aVapart
p4075
aVgreat
p4076
aVairbnb
p4077
aVbed
p4078
aVplace
p4079
aVdirti
p4080
aVfind
p4081
asV442714
p4082
(lp4083
Vet
p4084
aVmerci
p4085
aVerik
p4086
aVapart
p4087
aVjaim
p4088
aVjust
p4089
aVstreet
p4090
aVciti
p4091
aVquiet
p4092
aVstay
p4093
aVlove
p4094
aVgreat
p4095
aVstay
p4096
aVd
p4097
aVplace
p4098
asV1885088
p4099
(lp4100
Vview
p4101
aVrespons
p4102
aValway
p4103
aVgreat
p4104
aVjohnni
p4105
aVaccommod
p4106
aVview
p4107
aVrespons
p4108
aValway
p4109
aVhost
p4110
aVpost
p4111
aVview
p4112
aVrespons
p4113
aValway
p4114
asV8187662
p4115
(lp4116
Vgood
p4117
aVexperi
p4118
aVzfgalton
p4119
aVpark
p4120
aVsherri
p4121
aVapart
p4122
ag16
aVmuy
p4123
aVel
p4124
aVplace
p4125
aVgreat
p4126
aVlocat
p4127
asV3890704
p4128
(lp4129
Vtoni
p4130
ag5
aVsan
p4131
aVhome
p4132
aVstay
p4133
aVgood
p4134
aVgreat
p4135
aVtoni
p4136
aVhost
p4137
aVtoni
p4138
aVus
p4139
aVapart
p4140
aVclean
p4141
aVhelp
p4142
aVapart
p4143
asV3946571
p4144
(lp4145
Vde
p4146
aVthick
p4147
aVelizabeth
p4148
aVus
p4149
aVlisa
p4150
aVstay
p4151
aVlisa
p4152
aVstay
p4153
aVgreat
p4154
aVlisa
p4155
aVstay
p4156
aVhous
p4157
aVlisa
p4158
aVdoor
p4159
aVfirst
p4160
asV830330
p4161
(lp4162
Vnice
p4163
aVplace
p4164
aVsf
p4165
aVog
p4166
aVer
p4167
aVder
p4168
aVstay
p4169
aVapart
p4170
aVplace
p4171
aVgreat
p4172
aVclose
p4173
aVnice
p4174
aVlove
p4175
aVapart
p4176
aVstay
p4177
asV5250150
p4178
(lp4179
Vgreat
p4180
aVamaz
p4181
aVtime
p4182
aVapart
p4183
aVget
p4184
aVarea
p4185
aVstay
p4186
ag5
aVderek
p4187
aVcheck
p4188
aVderek
p4189
aVus
p4190
aVderek
p4191
aVapart
p4192
aVeasi
p4193
asV1620039
p4194
(lp4195
Vstay
p4196
aVhotel
p4197
aVroom
p4198
aVroom
p4199
aVgreat
p4200
aVnight
p4201
aVgreat
p4202
aVdana
p4203
aVlocat
p4204
aVstay
p4205
aVhotel
p4206
aVplace
p4207
aVdana
p4208
aVgreat
p4209
aVlocat
p4210
asV1053666
p4211
(lp4212
Vhappili
p4213
aVpart
p4214
aVtown
p4215
aVstudio
p4216
aVneil
p4217
aVapart
p4218
aVstay
p4219
aVneil
p4220
aVplace
p4221
aVgreat
p4222
aVhost
p4223
aVplenti
p4224
aVgreat
p4225
aVneil
p4226
aVplace
p4227
asV4226825
p4228
(lp4229
Vpatio
p4230
aVunit
p4231
aVnice
p4232
aVview
p4233
aVstay
p4234
aVgreat
p4235
aVapart
p4236
aVcomfort
p4237
aVstay
p4238
aVapart
p4239
aVview
p4240
aVfabul
p4241
aVapart
p4242
aVplace
p4243
aVsan
p4244
asV7663569
p4245
(lp4246
Vhous
p4247
ag5
aVlittl
p4248
aVrecommend
p4249
aVlocat
p4250
aVwell
p4251
asV5202993
p4252
(lp4253
Vsan
p4254
aVfrancisco
p4255
aVclean
p4256
aVhous
p4257
aValso
p4258
aVplace
p4259
aVvalentina
p4260
aVgreat
p4261
ag5
aVus
p4262
aVhous
p4263
aVvalentina
p4264
aValway
p4265
aVsafe
p4266
aVhost
p4267
asV664206
p4268
(lp4269
g304
aVmike
p4270
aVuse
p4271
aVplace
p4272
aVstay
p4273
aVmike
p4274
aVpost
p4275
aVday
p4276
aVcancel
p4277
aVciti
p4278
aVjust
p4279
aVleav
p4280
aVday
p4281
aVreserv
p4282
aVcancel
p4283
asV7278792
p4284
(lp4285
Vautom
p4286
aVcancel
p4287
aVhost
p4288
aVsoma
p4289
aVview
p4290
aVsuper
p4291
aVreserv
p4292
aVcancel
p4293
aVhost
p4294
aVhost
p4295
aVarriv
p4296
aVautom
p4297
aVpost
p4298
aVautom
p4299
aVarriv
p4300
asV1733056
p4301
(lp4302
g5
aVmark
p4303
aVciti
p4304
aVmark
p4305
aVus
p4306
aVstay
p4307
aVsf
p4308
ag4097
aVthank
p4309
aVstay
p4310
aVmark
p4311
aVlot
p4312
aVthank
p4313
aVsf
p4314
ag4097
asV8005452
p4315
(lp4316
Vlocat
p4317
aVhome
p4318
aVplace
p4319
aVplace
p4320
aVeugen
p4321
aVstay
p4322
aVclean
p4323
aVcomfort
p4324
aVconveni
p4325
aVlocat
p4326
aVdefinit
p4327
aVeugen
p4328
aVlocat
p4329
aVeugen
p4330
aVdefinit
p4331
asV3939412
p4332
(lp4333
Vfriendli
p4334
aVnice
p4335
aVlot
p4336
aVdavid
p4337
aVann
p4338
aValso
p4339
aVstay
p4340
aVdavid
p4341
aVann
p4342
aVann
p4343
aVdavid
p4344
aVstay
p4345
aVrealli
p4346
aVann
p4347
aVdavid
p4348
asV5211153
p4349
(lp4350
Vperfect
p4351
aVday
p4352
aVapart
p4353
aVstay
p4354
aVplace
p4355
aVperfect
p4356
aVbedroom
p4357
aVclean
p4358
aVtwo
p4359
aVlocat
p4360
aVami
p4361
aVpark
p4362
aVami
p4363
aVwell
p4364
aVhome
p4365
asV1999959
p4366
(lp4367
g5
aVmoney
p4368
aVtravel
p4369
aVsid
p4370
aVstay
p4371
aVus
p4372
aVus
p4373
aVapart
p4374
aVsid
p4375
aVsid
p4376
aVstay
p4377
aVus
p4378
aVstay
p4379
aVplace
p4380
aVsid
p4381
asV499096
p4382
(lp4383
Vingrid
p4384
aVgreat
p4385
ag5
aVingrid
p4386
aVstay
p4387
aVgreat
p4388
aVingrid
p4389
aVstudio
p4390
aVstay
p4391
aVde
p4392
aVet
p4393
aVnou
p4394
aVest
p4395
aVle
p4396
aVqui
p4397
asV8084772
p4398
(lp4399
Vgreat
p4400
aVbar
p4401
aVimportantli
p4402
aVmaintain
p4403
aVbar
p4404
aVdistanc
p4405
aVplace
p4406
aVwell
p4407
aVarea
p4408
aVmodern
p4409
aVmaintain
p4410
aVdistanc
p4411
aVanyth
p4412
aVphoto
p4413
aVapart
p4414
asV7344289
p4415
(lp4416
Vplace
p4417
aVnathan
p4418
aVstay
p4419
aVgreat
p4420
aVnice
p4421
aVhost
p4422
aVplace
p4423
aVcozi
p4424
aVstay
p4425
aVnathan
p4426
aVspace
p4427
aVus
p4428
aVus
p4429
aVhome
p4430
aVapart
p4431
asV4282346
p4432
(lp4433
Vshana
p4434
aVapart
p4435
aVlove
p4436
aVstay
p4437
aVapart
p4438
aVeasi
p4439
aVgreat
p4440
aVst
p4441
aVhost
p4442
aVeasi
p4443
aVshana
p4444
aVhost
p4445
aVeasi
p4446
aVhost
p4447
aVshana
p4448
asV1324467
p4449
(lp4450
Vrecommend
p4451
aVmaya
p4452
aVdefinit
p4453
aVgreat
p4454
aVlittl
p4455
aVfulli
p4456
aVtake
p4457
aVhostess
p4458
aVfantast
p4459
aVuniqu
p4460
aVfeel
p4461
aVcentral
p4462
aVeveryth
p4463
aVmaya
p4464
aVquestion
p4465
asV932481
p4466
(lp4467
Vgreat
p4468
aVhous
p4469
aVlocat
p4470
aVhous
p4471
aVlisa
p4472
aVgreat
p4473
aVpark
p4474
aVlocat
p4475
aVlisa
p4476
aVuse
p4477
aVexperi
p4478
ag5
aVhous
p4479
aVhelp
p4480
aVstay
p4481
asV6821152
p4482
(lp4483
Vflat
p4484
aVplace
p4485
aVnice
p4486
aValli
p4487
aVroom
p4488
aVroom
p4489
aValli
p4490
aVnice
p4491
aVplace
p4492
aVnice
p4493
aVmake
p4494
aVnice
p4495
aValli
p4496
aVroom
p4497
asV1356129
p4498
(lp4499
Vstay
p4500
aVgreat
p4501
aVnoah
p4502
aVle
p4503
aVla
p4504
aVde
p4505
aVnoah
p4506
aVroom
p4507
aVstay
p4508
aVreserv
p4509
aVbeauti
p4510
aVarriv
p4511
aVnoah
p4512
aVget
p4513
aVstay
p4514
asV8018902
p4515
(lp4516
Vgreat
p4517
aVgeorgi
p4518
aVhome
p4519
aVplace
p4520
aVgeorgi
p4521
aVlike
p4522
aVneighborhood
p4523
aVtake
p4524
aVmuy
p4525
aVhost
p4526
aVgeorgi
p4527
aVplace
p4528
aVkeep
p4529
aVcheck
p4530
aVus
p4531
asV2125621
p4532
(lp4533
Vapart
p4534
aVgreat
p4535
aVplace
p4536
aVapart
p4537
aVsean
p4538
aVstay
p4539
aVapart
p4540
aVwalk
p4541
aVstay
p4542
aVapart
p4543
aVsean
p4544
aVclean
p4545
aVarriv
p4546
aVreserv
p4547
aVday
p4548
asV4519757
p4549
(lp4550
Vstay
p4551
aVstaff
p4552
aVroom
p4553
aVde
p4554
aVle
p4555
aVstay
p4556
aVstay
p4557
aVnice
p4558
aVfriendli
p4559
ag662
aVone
p4560
aVhostel
p4561
aVhostel
p4562
aVplace
p4563
aVpeopl
p4564
asV4164567
p4565
(lp4566
Vkati
p4567
ag5
aVexperi
p4568
aVeasi
p4569
aVplace
p4570
aVsf
p4571
aVperfect
p4572
aVgreat
p4573
aVciti
p4574
aVkati
p4575
aVstay
p4576
aVplace
p4577
aVapart
p4578
ag5
aVstay
p4579
asV1145706
p4580
(lp4581
Vbeauti
p4582
aVethan
p4583
aVmission
p4584
aVroom
p4585
aVaccess
p4586
aVlara
p4587
aVde
p4588
aVet
p4589
aVle
p4590
aVlara
p4591
aVethan
p4592
aVmission
p4593
aVethan
p4594
aVlara
p4595
aVgreat
p4596
asV4504326
p4597
(lp4598
Vplace
p4599
ag5
ag304
aVpark
p4600
aVstay
p4601
aVgreat
p4602
aVjust
p4603
aVquick
p4604
aVadvertis
p4605
aVplace
p4606
aVstay
p4607
aVrealli
p4608
aVeasi
p4609
aVperfectli
p4610
aVcomplaint
p4611
asV455783
p4612
(lp4613
Vund
p4614
aVist
p4615
aVein
p4616
aVbeach
p4617
aVwell
p4618
ag5
aVgreat
p4619
aVstay
p4620
aVbeach
p4621
aVroom
p4622
aVthing
p4623
aVcomfort
p4624
aVgreat
p4625
aVnice
p4626
ag5
asV2209324
p4627
(lp4628
Vwork
p4629
aVapart
p4630
aVback
p4631
aVhelen
p4632
aVpark
p4633
aVus
p4634
aVgreat
p4635
ag5
aVclose
p4636
aVhelen
p4637
aVstay
p4638
aVgreat
p4639
aVhelen
p4640
aVstay
p4641
aVgreat
p4642
asV1287900
p4643
(lp4644
Vhost
p4645
aVcottag
p4646
aVrecommend
p4647
aVgreat
p4648
aVkati
p4649
aVeasi
p4650
aVkati
p4651
aVplace
p4652
aVtime
p4653
aVkati
p4654
aVstay
p4655
aVplace
p4656
aVarea
p4657
aVkati
p4658
aVcottag
p4659
asV41172
p4660
(lp4661
Vaway
p4662
aVfransisco
p4663
aVsue
p4664
aVsue
p4665
ag5
aVstay
p4666
aVund
p4667
ag304
aVda
p4668
aVla
p4669
aVque
p4670
aVel
p4671
aVund
p4672
aVist
p4673
aVsue
p4674
asV2289801
p4675
(lp4676
Vsiri
p4677
aVroom
p4678
aVpleasant
p4679
aVgreat
p4680
aVwelcom
p4681
aVgood
p4682
aVroom
p4683
aVwelcom
p4684
aVperfect
p4685
aVplace
p4686
aVsiri
p4687
aVus
p4688
aVhost
p4689
aVpark
p4690
aVroom
p4691
asV1699390
p4692
(lp4693
Vday
p4694
aVarriv
p4695
aVreserv
p4696
aVnatasha
p4697
aVgreat
p4698
ag5
aVet
p4699
aVkai
p4700
aVnatasha
p4701
aVgreat
p4702
aVstay
p4703
aVnatasha
p4704
aVstay
p4705
aVkai
p4706
asV29373
p4707
(lp4708
Vhost
p4709
aVcecilia
p4710
aVfirst
p4711
aVgood
p4712
aVlike
p4713
aVgreat
p4714
aVhous
p4715
aVcecilia
p4716
aVneed
p4717
aVcecilia
p4718
aVstay
p4719
aVgreat
p4720
aVneighborhood
p4721
aVcecilia
p4722
aVus
p4723
asV7581918
p4724
(lp4725
Vrani
p4726
aVneighborhood
p4727
aVstay
p4728
aVplace
p4729
aValso
p4730
aVrani
p4731
aVrani
p4732
aVstay
p4733
aVus
p4734
aVspot
p4735
aVapart
p4736
aVnice
p4737
aVhome
p4738
aVrecommend
p4739
aVgreat
p4740
asV8225137
p4741
(lp4742
g5
aVjust
p4743
aVnice
p4744
aVgreat
p4745
ag5
aVjust
p4746
ag5
aVnice
p4747
aVjust
p4748
aVtime
p4749
aVplace
p4750
aVjen
p4751
aVgreat
p4752
aVnear
p4753
aVgo
p4754
asV415088
p4755
(lp4756
Vtom
p4757
aVview
p4758
ag304
aVtom
p4759
aVplace
p4760
aVview
p4761
aVtom
p4762
aVplace
p4763
aVgreat
p4764
aVday
p4765
aVarriv
p4766
aVautom
p4767
aVlove
p4768
aVaccommod
p4769
asV3584900
p4770
(lp4771
Vthank
p4772
aVhost
p4773
aVeveryth
p4774
aVhost
p4775
aVthank
p4776
aVapart
p4777
aVapart
p4778
aVgreat
p4779
aVhost
p4780
aVstay
p4781
aVapart
p4782
aVmani
p4783
aVthank
p4784
aVhost
p4785
aVgreat
p4786
asV1324274
p4787
(lp4788
Vflat
p4789
aVrecommend
p4790
aVwelcom
p4791
aVapart
p4792
aVtim
p4793
aVstay
p4794
aVgreat
p4795
ag5
aVapart
p4796
aVplace
p4797
aVtim
p4798
aVapart
p4799
aVtim
p4800
ag5
aVapart
p4801
asV2236226
p4802
(lp4803
Vlocat
p4804
aVstay
p4805
aVstreet
p4806
aVapart
p4807
aVstreet
p4808
aVstay
p4809
aVgreat
p4810
aVapart
p4811
aVstay
p4812
aVappart
p4813
aVclean
p4814
aVapart
p4815
aVapart
p4816
aVgreat
p4817
aVus
p4818
asV7974287
p4819
(lp4820
Vaccess
p4821
aVapart
p4822
aVciti
p4823
asV533896
p4824
(lp4825
Vroom
p4826
aVnathan
p4827
aVemili
p4828
aVemili
p4829
aVnathan
p4830
aVhome
p4831
aVstay
p4832
aVus
p4833
aVamaz
p4834
aVemili
p4835
aVnathan
p4836
aVstay
p4837
aVnathan
p4838
aVemili
p4839
aVstay
p4840
asV822127
p4841
(lp4842
Vapart
p4843
aVgreat
p4844
aVstay
p4845
aVpreston
p4846
aVenjoy
p4847
aVairbnb
p4848
ag5
aVapart
p4849
aVpreston
p4850
aVcameron
p4851
aVpreston
p4852
aVlove
p4853
aVhome
p4854
aVpreston
p4855
ag5
asV1851435
p4856
(lp4857
Valso
p4858
aVshop
p4859
aVdistanc
p4860
aVapart
p4861
aVrecommend
p4862
aVgreat
p4863
aVemili
p4864
aVauf
p4865
aVemili
p4866
ag5
aVview
p4867
aVstay
p4868
aVview
p4869
aVplace
p4870
asV7729217
p4871
(lp4872
Vsave
p4873
aVeveryth
p4874
aVrealli
p4875
aVglenn
p4876
aVeven
p4877
aVgreat
p4878
aVroom
p4879
aVgreat
p4880
aVglenn
p4881
aVhost
p4882
aVclean
p4883
aVus
p4884
aVglenn
p4885
aVus
p4886
aVstay
p4887
asV8055625
p4888
(lp4889
Vgreat
p4890
aVroom
p4891
aVhelp
p4892
aVgreat
p4893
aVhelp
p4894
aVroom
p4895
aVchristoph
p4896
aVsoma
p4897
aVhaven
p4898
aVroom
p4899
aVhelp
p4900
aVgreat
p4901
aVroom
p4902
aVhelp
p4903
aVgreat
p4904
asV426558
p4905
(lp4906
Verika
p4907
aVdefinit
p4908
aVhelp
p4909
aVerika
p4910
aVplace
p4911
aVgreat
p4912
aVstay
p4913
aVerika
p4914
aVapart
p4915
aVgreat
p4916
aVerika
p4917
aVlocat
p4918
aVapart
p4919
aVerika
p4920
aVtime
p4921
asV7576852
p4922
(lp4923
Vcoffe
p4924
aVstay
p4925
aVmuni
p4926
aViron
p4927
aVmessag
p4928
aVwifi
p4929
aVcommun
p4930
aVlack
p4931
aVideal
p4932
aVapart
p4933
aVgreat
p4934
aVneighborhood
p4935
aVeasi
p4936
aVaccess
p4937
aVquick
p4938
asV3176509
p4939
(lp4940
Vapart
p4941
aVbeauti
p4942
aVclean
p4943
aVsteve
p4944
aVroom
p4945
aVstay
p4946
aVsteve
p4947
aVstay
p4948
ag304
aVgreat
p4949
aVwell
p4950
aVclean
p4951
aVsteve
p4952
aVrebecca
p4953
aVnice
p4954
asV4157031
p4955
(lp4956
Velizabeth
p4957
aVstudio
p4958
aVlocat
p4959
aVapart
p4960
aVstay
p4961
aVgreat
p4962
aVstay
p4963
aVapart
p4964
aVmuch
p4965
aVgreat
p4966
aVplace
p4967
aVelizabeth
p4968
aVplace
p4969
aVl
p4970
aVelizabeth
p4971
asV6182572
p4972
(lp4973
Vrecommend
p4974
aVcharm
p4975
aVsuper
p4976
aVcharm
p4977
aVrecommend
p4978
aVgreat
p4979
aVplace
p4980
aVsuper
p4981
aVgreat
p4982
aVla
p4983
aVen
p4984
ag16
aVcharm
p4985
aVlocat
p4986
aVhighli
p4987
asV8569939
p4988
(lp4989
Vchill
p4990
aVaccommod
p4991
aVstedman
p4992
aVstedman
p4993
aVawesom
p4994
aVaccommod
p4995
aVawesom
p4996
aVstedman
p4997
aVaccommod
p4998
aVawesom
p4999
aVchill
p5000
aVaccommod
p5001
aVawesom
p5002
aVstedman
p5003
aVaccommod
p5004
asV2222631
p5005
(lp5006
Vhous
p5007
aVlocat
p5008
ag5
aVhous
p5009
aVcool
p5010
aVeasi
p5011
aVbernat
p5012
aVbed
p5013
aVrecommend
p5014
aVnice
p5015
aVcomfort
p5016
aVbernat
p5017
aVbernat
p5018
aVstay
p5019
aVapart
p5020
asV6958831
p5021
(lp5022
Vplace
p5023
aVerik
p5024
aVclean
p5025
aVpeopl
p5026
aVclean
p5027
aVgreat
p5028
aVwell
p5029
aVblock
p5030
aVlist
p5031
aVpeopl
p5032
aVclean
p5033
aVjust
p5034
aVpeopl
p5035
aVclean
p5036
aVjust
p5037
asV3262216
p5038
(lp5039
Vhome
p5040
aVstay
p5041
aVyet
p5042
aVstay
p5043
aVeven
p5044
aVhous
p5045
aVfamili
p5046
aVeven
p5047
aVfrancisco
p5048
ag5
aVhous
p5049
aVgreat
p5050
aVhous
p5051
aVstay
p5052
aVeven
p5053
asV4531864
p5054
(lp5055
Vstay
p5056
aVstudio
p5057
aVlocat
p5058
ag5
aVplace
p5059
aVeveryth
p5060
ag304
aVclean
p5061
aVwork
p5062
aVlocat
p5063
aVsf
p5064
aVstay
p5065
aVarea
p5066
aVsmoothli
p5067
aVapart
p5068
asV528585
p5069
(lp5070
Vtoni
p5071
aVstay
p5072
ag5
aVtoni
p5073
aVhome
p5074
aVstay
p5075
aVtoni
p5076
aVlove
p5077
aVstay
p5078
aVla
p5079
aVde
p5080
aVtoni
p5081
aVmake
p5082
aVfamili
p5083
aVre
p5084
asV162934
p5085
(lp5086
Vla
p5087
aVund
p5088
aVda
p5089
aVnoell
p5090
aVeasi
p5091
aVgreat
p5092
ag304
aVstay
p5093
aVnoell
p5094
aVstay
p5095
aVnoell
p5096
aVgreat
p5097
ag5
aVnoell
p5098
aVplace
p5099
asV6043052
p5100
(lp5101
Vlove
p5102
aVbess
p5103
aVgreat
p5104
aVextrem
p5105
aVthank
p5106
aVawesom
p5107
aVextrem
p5108
aVthank
p5109
aVawesom
p5110
aVjust
p5111
aVhome
p5112
aVcomfort
p5113
aVhome
p5114
aVrealli
p5115
aVthank
p5116
asV5309235
p5117
(lp5118
Vnice
p5119
aVapart
p5120
aVlocat
p5121
ag5
aVelliott
p5122
aVbetter
p5123
aVlocat
p5124
aVelliott
p5125
aVapart
p5126
aVgreat
p5127
aVstay
p5128
aVfood
p5129
aVhelp
p5130
aVexactli
p5131
aVelliot
p5132
asV7650273
p5133
(lp5134
g304
aVrodrigo
p5135
ag5
aVund
p5136
aVein
p5137
aVsehr
p5138
aVrodrigo
p5139
aVhost
p5140
aVnice
p5141
aVreserv
p5142
aVcancel
p5143
aVpark
p5144
aVclose
p5145
aVstay
p5146
asV7936656
p5147
(lp5148
Vhome
p5149
aVmake
p5150
aVhomeown
p5151
aVhost
p5152
aVwell
p5153
aVtime
p5154
aVanswer
p5155
aVquestion
p5156
aVdescrib
p5157
aVchocol
p5158
aVgreet
p5159
aVus
p5160
aVchocol
p5161
aVhost
p5162
aVanswer
p5163
asV954079
p5164
(lp5165
Valyssa
p5166
aVapart
p5167
aVlove
p5168
aVbetter
p5169
ag304
aVview
p5170
aVneed
p5171
aVapart
p5172
aVhost
p5173
aVapart
p5174
aVeveryth
p5175
aVlocat
p5176
aVgreat
p5177
ag5
aVwelcom
p5178
asV4069838
p5179
(lp5180
Vashley
p5181
aVus
p5182
aVplace
p5183
aVest
p5184
aVet
p5185
aVde
p5186
aVgreat
p5187
aVplace
p5188
aVashley
p5189
aVashley
p5190
aVstay
p5191
ag5
aVashley
p5192
aVplace
p5193
aVgreat
p5194
asV8066397
p5195
(lp5196
Valso
p5197
aVcourteou
p5198
aVclean
p5199
aVnotch
p5200
aVdeck
p5201
aVclean
p5202
aVcontact
p5203
aVsituat
p5204
aVquick
p5205
aVgreat
p5206
aVspace
p5207
aVexperi
p5208
aVdefinit
p5209
aVnotch
p5210
aVwill
p5211
asV2978994
p5212
(lp5213
Vlandscap
p5214
aVspaciou
p5215
aVrear
p5216
aVwant
p5217
aVrear
p5218
aVspaciou
p5219
aVapart
p5220
aVenjoy
p5221
aVnice
p5222
aVrear
p5223
aVawesom
p5224
aVhighli
p5225
aVwant
p5226
aVrear
p5227
aVspaciou
p5228
asV5095492
p5229
(lp5230
Vgreat
p5231
aVstay
p5232
aVciti
p5233
aVcathi
p5234
aVstay
p5235
aVapart
p5236
aVgreat
p5237
aVexperi
p5238
aVlocat
p5239
aVcathi
p5240
aVgreat
p5241
aVlocat
p5242
aVcathi
p5243
aVstay
p5244
aVapart
p5245
asV8739
p5246
(lp5247
Vstay
p5248
aVivan
p5249
aVwendi
p5250
aVstay
p5251
ag5
aVivan
p5252
aVstay
p5253
aVivan
p5254
aVwendi
p5255
aVivan
p5256
aVwendi
p5257
aVstay
p5258
aVivan
p5259
aVwendi
p5260
aVgreat
p5261
asV6289879
p5262
(lp5263
Vminut
p5264
aVgreat
p5265
aVwithin
p5266
aVplace
p5267
aVgreat
p5268
aVlove
p5269
aVlocat
p5270
aVrealli
p5271
aVperfect
p5272
aVcancel
p5273
aVday
p5274
aVhost
p5275
aVgreat
p5276
aVplace
p5277
aVbernat
p5278
asV3116974
p5279
(lp5280
Vde
p5281
aVus
p5282
aVnou
p5283
aVlocat
p5284
aVcarri
p5285
aVgreat
p5286
aVstay
p5287
aVgreat
p5288
aVhome
p5289
aVcarri
p5290
aVapart
p5291
ag5
ag5
aVcarri
p5292
aVapart
p5293
asV2037464
p5294
(lp5295
Vlove
p5296
aVstay
p5297
aVplace
p5298
aVlove
p5299
aVstay
p5300
aVplace
p5301
aVkunal
p5302
aVcome
p5303
aVtime
p5304
aVstay
p5305
aVplace
p5306
aVrecommend
p5307
aVlove
p5308
aVstay
p5309
aVkunal
p5310
asV5524877
p5311
(lp5312
Vwell
p5313
aVlocat
p5314
aVlike
p5315
aVreserv
p5316
aVhost
p5317
aVeveryth
p5318
aVreserv
p5319
aVhost
p5320
aVeveryth
p5321
aVreserv
p5322
aVhost
p5323
aVeveryth
p5324
aVreserv
p5325
aVhost
p5326
aVautom
p5327
asV3459007
p5328
(lp5329
Vgreat
p5330
aVvic
p5331
aVtime
p5332
aVgreat
p5333
aVvic
p5334
aVhome
p5335
aVgreat
p5336
aVstay
p5337
aVlocat
p5338
aVfantast
p5339
aVenjoy
p5340
aVstay
p5341
aVhaight
p5342
aVet
p5343
aVde
p5344
asV625655
p5345
(lp5346
Vbrigitt
p5347
aVgreat
p5348
aVhous
p5349
aVbrigitt
p5350
aVgreat
p5351
aVstay
p5352
aVbrigitt
p5353
aVus
p5354
aVroom
p5355
aVroom
p5356
aVbrigitt
p5357
aVstay
p5358
aVplace
p5359
aVpleasant
p5360
aVfriendli
p5361
asV283791
p5362
(lp5363
Vhost
p5364
aVgreat
p5365
aVariel
p5366
aVnice
p5367
aVhost
p5368
aVariel
p5369
aVen
p5370
ag4970
aVgreat
p5371
aVhost
p5372
aVapart
p5373
aVgreat
p5374
aVvisit
p5375
aVusual
p5376
asV2101365
p5377
(lp5378
Vgreat
p5379
aVstay
p5380
aVthank
p5381
aVstay
p5382
aVplace
p5383
aVclean
p5384
aVnice
p5385
aVtime
p5386
aVgreat
p5387
ag16
aVla
p5388
aVde
p5389
aVpeopl
p5390
aVapart
p5391
aVhome
p5392
asV2396847
p5393
(lp5394
Vyelena
p5395
aVstay
p5396
aVstudio
p5397
aVyelena
p5398
aVstay
p5399
aVus
p5400
aVgreat
p5401
aVus
p5402
aVstay
p5403
aVund
p5404
aVist
p5405
aVder
p5406
aVde
p5407
aVyelena
p5408
aVmuy
p5409
asV2558763
p5410
(lp5411
Vstay
p5412
aVjeanni
p5413
aVus
p5414
aVjeanni
p5415
aVus
p5416
aVstay
p5417
aVeveryth
p5418
aVjeanni
p5419
aVlist
p5420
aVgreat
p5421
aVjeanni
p5422
aVlocat
p5423
aVel
p5424
aVes
p5425
aVjeanni
p5426
asV8221235
p5427
(lp5428
Vapart
p5429
aVhost
p5430
aVwant
p5431
aVlove
p5432
aVapart
p5433
aVgreat
p5434
aVlocat
p5435
aVgreat
p5436
aVconveni
p5437
aVgreat
p5438
aVhost
p5439
aVaround
p5440
aVrespons
p5441
aVgreat
p5442
aVaround
p5443
asV4695477
p5444
(lp5445
Vmaria
p5446
aVplace
p5447
aVhous
p5448
aVstay
p5449
aVgreat
p5450
aVplace
p5451
aVmaria
p5452
aVlove
p5453
aVclean
p5454
aVmaria
p5455
aVplace
p5456
ag5
aVstay
p5457
aVcottag
p5458
aVmaria
p5459
asV132662
p5460
(lp5461
Vcozi
p5462
aVlittl
p5463
aVgreat
p5464
aVgreat
p5465
aVlocat
p5466
aVhost
p5467
ag5
aVapart
p5468
aVgreat
p5469
ag5
aVel
p5470
aVciti
p5471
aVapart
p5472
aVstay
p5473
aVjuan
p5474
asV3216656
p5475
(lp5476
Vaerin
p5477
aVhighli
p5478
aVclean
p5479
aVstay
p5480
aVrealli
p5481
aVeveryth
p5482
aVstudio
p5483
aVaerin
p5484
aVmission
p5485
aVgreat
p5486
aVaerin
p5487
ag5
aVstay
p5488
aVaerin
p5489
aVapart
p5490
asV3277849
p5491
(lp5492
Vandi
p5493
ag5
aVhous
p5494
aVandi
p5495
aVdie
p5496
aVist
p5497
aVog
p5498
aVvar
p5499
aVen
p5500
aVhous
p5501
aVstay
p5502
aVandi
p5503
aVandi
p5504
aVhous
p5505
aVgreat
p5506
asV3263036
p5507
(lp5508
Vget
p5509
aVconveni
p5510
aVblock
p5511
aVplace
p5512
aVsan
p5513
aVaccess
p5514
aVlocat
p5515
aVapart
p5516
aVmichael
p5517
aVget
p5518
aVconveni
p5519
aVthroughtout
p5520
aVget
p5521
aVconveni
p5522
aVqueri
p5523
asV5751240
p5524
(lp5525
Vrealli
p5526
aVrecommend
p5527
aVstay
p5528
aVus
p5529
ag5
aVbeauti
p5530
aVlist
p5531
aVrecommend
p5532
aVhighli
p5533
aVgreat
p5534
aVkati
p5535
aVplace
p5536
aVkati
p5537
aVapart
p5538
aVhelp
p5539
asV8085920
p5540
(lp5541
Vhost
p5542
aVprevent
p5543
aVview
p5544
aVhighli
p5545
aVmaryam
p5546
aVlittl
p5547
aVhappen
p5548
aVlittl
p5549
aVarea
p5550
aVmaryam
p5551
aVhighli
p5552
aVbreathtak
p5553
aVarea
p5554
aVbreathtak
p5555
aVbay
p5556
asV256920
p5557
(lp5558
Vsergio
p5559
aVplace
p5560
aVgreat
p5561
aVbathroom
p5562
aVplace
p5563
aVsergio
p5564
aVunbeliev
p5565
aVeveryth
p5566
aVamaz
p5567
aVstay
p5568
aVsergio
p5569
aVhous
p5570
aVhost
p5571
aVaccommod
p5572
ag304
asV785708
p5573
(lp5574
Varriv
p5575
aVcancel
p5576
aVpost
p5577
aVhighli
p5578
aVquiet
p5579
aValso
p5580
aVstay
p5581
aVgreat
p5582
aVapart
p5583
aVbrandon
p5584
aVspaciou
p5585
ag5
aVbrandon
p5586
aVenough
p5587
aVquit
p5588
asV5478359
p5589
(lp5590
Vsan
p5591
aVhome
p5592
aVmichel
p5593
aVmichel
p5594
aVarea
p5595
aVperfect
p5596
aVstay
p5597
aVwhitney
p5598
aVmichel
p5599
aVmichel
p5600
aVnice
p5601
aVwhole
p5602
aVgreat
p5603
aVmichel
p5604
aVcomfort
p5605
asV4279446
p5606
(lp5607
Vcancel
p5608
aVhost
p5609
aVautom
p5610
aVarriv
p5611
aVreserv
p5612
aVhost
p5613
aVcancel
p5614
aVday
p5615
aVhost
p5616
aVcancel
p5617
aVday
p5618
aVcancel
p5619
aVhost
p5620
asV1351626
p5621
(lp5622
Vrecommend
p5623
aVsure
p5624
aVhous
p5625
aVneighborhood
p5626
aVhous
p5627
aVfeel
p5628
aVwelcom
p5629
aValway
p5630
aVrecommend
p5631
aVphylli
p5632
aVgreat
p5633
aVknow
p5634
aVphylli
p5635
aVrecommend
p5636
aVneighborhood
p5637
asV2965491
p5638
(lp5639
Vmade
p5640
aVplace
p5641
ag5
aVfamili
p5642
aVein
p5643
aVtogeth
p5644
aVblock
p5645
aVjust
p5646
aVexperi
p5647
aVhous
p5648
aVgeordi
p5649
aVstay
p5650
aVhome
p5651
aVgeordi
p5652
asV6985131
p5653
(lp5654
Vgrace
p5655
aVroom
p5656
aVdefinit
p5657
aVgrace
p5658
ag5
aVroom
p5659
aVgrace
p5660
aVplace
p5661
ag5
aVgrace
p5662
aVclean
p5663
aVroom
p5664
aVhost
p5665
aVarriv
p5666
aVautom
p5667
asV4745835
p5668
(lp5669
Vawesom
p5670
aVlocat
p5671
aVeasi
p5672
aVraman
p5673
aVpeopl
p5674
aVgood
p5675
aVgreat
p5676
aVraman
p5677
aVarriv
p5678
aVclean
p5679
aVgreat
p5680
aVbathroom
p5681
aVraman
p5682
aVplace
p5683
ag5
asV7193209
p5684
(lp5685
Vdonna
p5686
aVfrancisco
p5687
aVavail
p5688
aVflat
p5689
aVgood
p5690
aVwonder
p5691
aVdonna
p5692
aVflat
p5693
aVrestaur
p5694
aVest
p5695
ag4970
aVavec
p5696
aVsan
p5697
aVfrancisco
p5698
aVavail
p5699
asV702461
p5700
(lp5701
Vde
p5702
aVapart
p5703
aVlittl
p5704
aVapart
p5705
aVgreat
p5706
aVsan
p5707
aVgreat
p5708
aVlocat
p5709
aVapart
p5710
aVyelena
p5711
aVapart
p5712
aVgreat
p5713
aVes
p5714
aVsehr
p5715
aVdie
p5716
asV5186436
p5717
(lp5718
Vstay
p5719
aVhome
p5720
aVwelcom
p5721
aVautom
p5722
aVpost
p5723
aVmegan
p5724
aVgreat
p5725
aVmonica
p5726
aVairbnb
p5727
aVmonth
p5728
aVmonica
p5729
aVrealli
p5730
aVgreat
p5731
aVpark
p5732
asV2746118
p5733
(lp5734
Vjuli
p5735
aVjerom
p5736
aVstay
p5737
aVgreat
p5738
aVjuli
p5739
aVgood
p5740
aVplace
p5741
aVgreat
p5742
aVjerom
p5743
aVwindow
p5744
aVclose
p5745
aVbu
p5746
aVroom
p5747
ag5
aVgreat
p5748
asV115903
p5749
(lp5750
Valix
p5751
aVgreat
p5752
aVstay
p5753
aValix
p5754
aVfriendli
p5755
aVwork
p5756
aValix
p5757
ag5
aVgreat
p5758
aValix
p5759
aVgreat
p5760
aVstay
p5761
aValix
p5762
aVgreat
p5763
aVstay
p5764
asV3093543
p5765
(lp5766
Vstudio
p5767
aVmassimo
p5768
aVstay
p5769
ag662
aVla
p5770
aVgreat
p5771
aVmassimo
p5772
aVstay
p5773
aVmassimo
p5774
aVstudio
p5775
aVgreat
p5776
aVde
p5777
aVes
p5778
aVmuy
p5779
asV5184693
p5780
(lp5781
g5
aVashley
p5782
aVstay
p5783
aVroom
p5784
aVstay
p5785
aVawesom
p5786
aVgreat
p5787
aVhost
p5788
aVfriendli
p5789
aVroom
p5790
aVrealli
p5791
aVashley
p5792
aVcomfort
p5793
aVnight
p5794
asV8662323
p5795
(lp5796
Vway
p5797
aVclean
p5798
aVneighborhood
p5799
aVride
p5800
aVwent
p5801
aVsf
p5802
aVride
p5803
aVairport
p5804
aVuber
p5805
aVright
p5806
aVairport
p5807
aVuber
p5808
aVminut
p5809
aVwalk
p5810
aVstation
p5811
asV6716417
p5812
(lp5813
Vstay
p5814
aVrecommend
p5815
aVinform
p5816
aVplace
p5817
aVdelphin
p5818
aVgreat
p5819
aVcomfort
p5820
aVenjoy
p5821
aVneighborhood
p5822
aVsan
p5823
aVfrancisco
p5824
aVspace
p5825
aVquestion
p5826
aVdelphin
p5827
aVstay
p5828
asV506465
p5829
(lp5830
Vclean
p5831
aVtowel
p5832
aVlinen
p5833
aVplace
p5834
ag304
aVblock
p5835
aVcomfort
p5836
aVlot
p5837
aVgreat
p5838
aVdavid
p5839
aVaround
p5840
aVarriv
p5841
aVreserv
p5842
aVpost
p5843
asV593165
p5844
(lp5845
Vlocat
p5846
aVplace
p5847
aVgreat
p5848
aVarriv
p5849
aVpost
p5850
aVcancel
p5851
aVlot
p5852
ag5
aVclean
p5853
aVclean
p5854
aVapart
p5855
aVlocat
p5856
aVapart
p5857
aVcomfort
p5858
aVgreat
p5859
asV210150
p5860
(lp5861
g5
aVstay
p5862
aVeve
p5863
ag5
aVplace
p5864
aVlike
p5865
aVview
p5866
aVeve
p5867
aVstay
p5868
aVeve
p5869
aVgreat
p5870
aVstay
p5871
aVapart
p5872
aVgreat
p5873
aVhome
p5874
asV5271583
p5875
(lp5876
Vel
p5877
aVcon
p5878
ag16
aVemili
p5879
aVcar
p5880
aVgreat
p5881
aVcome
p5882
aVhous
p5883
aVmission
p5884
aVhous
p5885
ag304
aVstay
p5886
aVemili
p5887
aVspace
p5888
aVus
p5889
asV2670951
p5890
(lp5891
Vapart
p5892
aVgreat
p5893
aVstay
p5894
aVhome
p5895
aVapart
p5896
aVlocat
p5897
ag304
aVday
p5898
aValso
p5899
aVplace
p5900
aVfrancisco
p5901
aVsan
p5902
aVarea
p5903
aVcan
p5904
aVpatsi
p5905
asV5272750
p5906
(lp5907
Vfriendli
p5908
aVpeopl
p5909
aVclean
p5910
aVsoon
p5911
aVatmospher
p5912
aVroom
p5913
aVhostel
p5914
aVstay
p5915
aVfind
p5916
aVdie
p5917
aVund
p5918
aVhostel
p5919
aVstay
p5920
aVsarah
p5921
aVday
p5922
asV4061282
p5923
(lp5924
Vroom
p5925
aVgreat
p5926
aVwelcom
p5927
aVstay
p5928
aVneighborhood
p5929
aVcomfort
p5930
aVdeepali
p5931
aVroom
p5932
aVclean
p5933
ag5
aVdeepali
p5934
aVplace
p5935
aVawesom
p5936
aVhost
p5937
aVroom
p5938
asV3265792
p5939
(lp5940
Vemili
p5941
aVlove
p5942
aVneighborhood
p5943
aVgreat
p5944
aVplace
p5945
aVstay
p5946
aVstay
p5947
aVemili
p5948
aVapart
p5949
aVemili
p5950
aVperfect
p5951
aVapart
p5952
ag5
aVemili
p5953
aVgreat
p5954
asV224579
p5955
(lp5956
Varmel
p5957
ag5
aVplace
p5958
aVde
p5959
aVet
p5960
aVarmel
p5961
aVstay
p5962
aVlike
p5963
aVlove
p5964
aVcook
p5965
aVrespons
p5966
aVarmel
p5967
aVnice
p5968
aVhous
p5969
asV8870673
p5970
(lp5971
Vlocat
p5972
ag5
aVkind
p5973
aVrespect
p5974
aVawesom
p5975
aVkind
p5976
aVfantast
p5977
aVrespect
p5978
aVflat
p5979
aVrespect
p5980
aVprice
p5981
aVfantast
p5982
aVprice
p5983
aVflat
p5984
aVrespect
p5985
asV7173279
p5986
(lp5987
Vgreat
p5988
aVplace
p5989
aVrenov
p5990
aVsuper
p5991
aVzoran
p5992
aVnice
p5993
aVperfect
p5994
aVclean
p5995
aVlocat
p5996
aVgreat
p5997
aVhelp
p5998
aVsan
p5999
aVcome
p6000
aVapart
p6001
aVgreet
p6002
asV3480210
p6003
(lp6004
Vde
p6005
aVet
p6006
aVdan
p6007
aVday
p6008
aVpost
p6009
aVstay
p6010
aVgreat
p6011
aVhome
p6012
ag4970
aVde
p6013
aVvic
p6014
aVhous
p6015
aVquiet
p6016
aVsleep
p6017
asV653119
p6018
(lp6019
Vpost
p6020
aVday
p6021
aVthank
p6022
aVlocat
p6023
aVcouch
p6024
aVhighli
p6025
aVaround
p6026
aVpointer
p6027
aVpost
p6028
aVautom
p6029
aVday
p6030
aVpost
p6031
aVarriv
p6032
aVcancel
p6033
asV889175
p6034
(lp6035
Vgreat
p6036
aVlauri
p6037
aVstay
p6038
aVle
p6039
aVlauri
p6040
aVde
p6041
aVlauri
p6042
ag5
aVmuy
p6043
aVpark
p6044
aVstay
p6045
aVlauri
p6046
aVplace
p6047
aVlauri
p6048
aVstay
p6049
asV8482762
p6050
(lp6051
Vus
p6052
aVhome
p6053
aVhost
p6054
aVfelt
p6055
aVtaxi
p6056
aVbrilliant
p6057
aVhelp
p6058
aVdowntown
p6059
aVfelt
p6060
aVluxuri
p6061
aVfelt
p6062
aVdelight
p6063
aVus
p6064
aVhome
p6065
aVolivi
p6066
asV2031532
p6067
(lp6068
g5
aVplace
p6069
aVelena
p6070
ag5
aVrestaur
p6071
aVelena
p6072
aVstay
p6073
aVlocat
p6074
aVrecommend
p6075
aVapt
p6076
aVnice
p6077
aVelena
p6078
aVelena
p6079
aVapart
p6080
aVgreat
p6081
asV6495015
p6082
(lp6083
Vdeidr
p6084
ag5
aVfull
p6085
aVplace
p6086
aVdeidr
p6087
aVgreat
p6088
aVus
p6089
aVnight
p6090
aVgood
p6091
aVeveryth
p6092
aVrespons
p6093
aVlove
p6094
aVdeidr
p6095
aVgreat
p6096
ag5
asV46843
p6097
(lp6098
Vopal
p6099
ag5
aValso
p6100
aVopal
p6101
aVstay
p6102
aVplace
p6103
aVopal
p6104
aVstay
p6105
aVhous
p6106
aVopal
p6107
ag5
aVhous
p6108
aVopal
p6109
aVstay
p6110
aVhous
p6111
asV8486422
p6112
(lp6113
Vlocat
p6114
aVplace
p6115
aVhost
p6116
aVgreat
p6117
aVlocat
p6118
aVhost
p6119
aVroom
p6120
aVgreat
p6121
aVlevel
p6122
aVplace
p6123
aVhost
p6124
aVlocat
p6125
aVamaz
p6126
aVhous
p6127
aVplace
p6128
asV3780458
p6129
(lp6130
Vla
p6131
ag16
aVmuy
p6132
aVcarmen
p6133
aVjohn
p6134
aVstay
p6135
aVtime
p6136
aVhous
p6137
aVciti
p6138
aVjohn
p6139
aVstay
p6140
aVhome
p6141
aVjohn
p6142
aVcarmen
p6143
aVplace
p6144
asV2361587
p6145
(lp6146
Vapart
p6147
aVgood
p6148
aVbedroom
p6149
aVgreat
p6150
aVlocat
p6151
aVrecommend
p6152
aVclean
p6153
aVmade
p6154
aVapart
p6155
aVgreat
p6156
aVzach
p6157
aVapart
p6158
aVzach
p6159
aVrealli
p6160
aVplace
p6161
asV865873
p6162
(lp6163
Vgreat
p6164
aVstay
p6165
aVarea
p6166
aVmission
p6167
aVlocat
p6168
aVsuper
p6169
aVlocat
p6170
aVsuper
p6171
aVperfect
p6172
aVlocat
p6173
aVsuper
p6174
aVperfect
p6175
aVlocat
p6176
aVbedroom
p6177
aVhelp
p6178
asV5631995
p6179
(lp6180
Vplace
p6181
aVann
p6182
aVgreat
p6183
aVlocat
p6184
aVgreat
p6185
aVann
p6186
aVann
p6187
aVplace
p6188
aVhome
p6189
aVann
p6190
aVstay
p6191
aVplace
p6192
aVhost
p6193
aVgreat
p6194
aVquiet
p6195
asV6973090
p6196
(lp6197
Vthank
p6198
aVwasn
p6199
aVwent
p6200
aVlocat
p6201
aVmatt
p6202
aVstay
p6203
aVlocat
p6204
aVmatt
p6205
aVstay
p6206
aVmatt
p6207
aVstay
p6208
aVlocat
p6209
aVlocat
p6210
aVapart
p6211
aVroommat
p6212
asV5454959
p6213
(lp6214
Vlike
p6215
aVbeauti
p6216
aVperfectli
p6217
aVappoint
p6218
aVlocat
p6219
ag5
aVstep
p6220
aVlocat
p6221
aVjust
p6222
aVaway
p6223
ag5
aVjoy
p6224
aVconveni
p6225
aVday
p6226
asV1510980
p6227
(lp6228
Vhotel
p6229
aVlocat
p6230
aVstay
p6231
aVcheck
p6232
aVhotel
p6233
aVroom
p6234
aVgreat
p6235
aVeric
p6236
aVstay
p6237
aVeric
p6238
aVcomfort
p6239
aVeasi
p6240
aVgreat
p6241
aVroom
p6242
aVhotel
p6243
asV1117098
p6244
(lp6245
Vluz
p6246
aVus
p6247
aVstay
p6248
aVluz
p6249
aVus
p6250
aVneed
p6251
aVluz
p6252
aVstay
p6253
aVus
p6254
aVluz
p6255
aVstay
p6256
aVthank
p6257
aVneed
p6258
aVhost
p6259
aVluz
p6260
asV8118808
p6261
(lp6262
Vus
p6263
aVroom
p6264
aVwife
p6265
aVget
p6266
aVstay
p6267
aVarea
p6268
aVplace
p6269
aVnice
p6270
aVclean
p6271
aVjackson
p6272
aVus
p6273
aVhome
p6274
aVhous
p6275
aVroom
p6276
ag5
asV936209
p6277
(lp6278
Vgreat
p6279
aVlocat
p6280
aVplace
p6281
aVhannah
p6282
aVstay
p6283
aVnice
p6284
aVhannah
p6285
aVbed
p6286
ag304
aVhannah
p6287
aVstay
p6288
aVgreat
p6289
aVlocat
p6290
aVperfect
p6291
aVhost
p6292
asV2783251
p6293
(lp6294
Vapart
p6295
aVgreat
p6296
aVlocat
p6297
aVdie
p6298
aVwir
p6299
aVund
p6300
aVunit
p6301
aVlocat
p6302
aVperfect
p6303
aVellen
p6304
aVapart
p6305
ag5
aVle
p6306
aVde
p6307
aVet
p6308
asV3229488
p6309
(lp6310
Vplace
p6311
aVhost
p6312
aVgreat
p6313
aVkeith
p6314
ag5
aVincred
p6315
aVkeith
p6316
aVnice
p6317
aVgreat
p6318
aVkeith
p6319
aVroom
p6320
aVus
p6321
aVsf
p6322
aVstay
p6323
aVkeith
p6324
asV5780753
p6325
(lp6326
Vmauricio
p6327
aVfriendli
p6328
aVstay
p6329
aVmauricio
p6330
aVus
p6331
aVstay
p6332
aVnice
p6333
aVmauricio
p6334
aVstreet
p6335
aVmauricio
p6336
ag5
aVstay
p6337
aVmauricio
p6338
aVarriv
p6339
aVhost
p6340
asV2756856
p6341
(lp6342
Vjay
p6343
aVgreat
p6344
aVstay
p6345
aVplace
p6346
aVjay
p6347
aVgreat
p6348
aVjay
p6349
aVstay
p6350
aVplace
p6351
aVjay
p6352
aVwar
p6353
aVund
p6354
aVjay
p6355
aVplace
p6356
ag5
asV1978669
p6357
(lp6358
Vstay
p6359
aVus
p6360
aVhost
p6361
aVapart
p6362
ag5
aVkiwi
p6363
aVplace
p6364
aVgreat
p6365
aVstay
p6366
aVstay
p6367
aVdefinit
p6368
aVsan
p6369
aVhost
p6370
aVstay
p6371
aVfrancisco
p6372
asV3676814
p6373
(lp6374
Vgreat
p6375
aVapart
p6376
aVliliana
p6377
aVgreat
p6378
aVplace
p6379
aVexactli
p6380
aVarriv
p6381
aVday
p6382
aVautom
p6383
aVstay
p6384
aVplace
p6385
aVwork
p6386
aVliliana
p6387
aVlocat
p6388
aVstay
p6389
asV6045135
p6390
(lp6391
Vcoffe
p6392
aVshow
p6393
aVstay
p6394
aVgiven
p6395
aVstay
p6396
aVplace
p6397
aVgiven
p6398
aVplace
p6399
aVstay
p6400
aVnice
p6401
aVpark
p6402
aVpeopl
p6403
ag1718
aVocean
p6404
aVmuni
p6405
asV890902
p6406
(lp6407
Veveri
p6408
aVbath
p6409
aVfairli
p6410
aVfairli
p6411
aVpark
p6412
aVsaw
p6413
aVfairli
p6414
aVsaw
p6415
aVbath
p6416
aVnight
p6417
aVfairli
p6418
aVshare
p6419
aVbig
p6420
aVfound
p6421
aVeasili
p6422
asV890901
p6423
(lp6424
Vstay
p6425
aVgreat
p6426
aVplace
p6427
aVgreat
p6428
aVplace
p6429
aVvic
p6430
aVstay
p6431
aVvic
p6432
aVhous
p6433
aVla
p6434
aVque
p6435
aVfoto
p6436
aVnew
p6437
aVappart
p6438
aVmeet
p6439
asV1290935
p6440
(lp6441
Vhome
p6442
ag5
aVstay
p6443
ag5
aVsarah
p6444
aVhous
p6445
aVsarah
p6446
aVview
p6447
aVhome
p6448
aVhous
p6449
aVsarah
p6450
aVview
p6451
aVhelp
p6452
aVsan
p6453
aVfrancisco
p6454
asV2319032
p6455
(lp6456
Vwelcom
p6457
aVmade
p6458
aVfeel
p6459
aVlove
p6460
aVhost
p6461
aVapart
p6462
aVgreat
p6463
aVroom
p6464
aVjoseph
p6465
aVjoseph
p6466
aVgreat
p6467
aVplace
p6468
aVjoseph
p6469
aVstay
p6470
aVgreat
p6471
asV2010572
p6472
(lp6473
Vgreat
p6474
aVstay
p6475
aVjeff
p6476
aVwalk
p6477
aVroom
p6478
aVlocat
p6479
aVjeff
p6480
aVgreat
p6481
aVstay
p6482
aVcomfort
p6483
aVgood
p6484
aVlocat
p6485
aVhous
p6486
aVstay
p6487
aVperfect
p6488
asV4916065
p6489
(lp6490
Vrecommend
p6491
aVarriv
p6492
aVlocat
p6493
aVstay
p6494
aVcomfort
p6495
ag304
aVandr
p6496
aVdidn
p6497
aVrecommend
p6498
aVstay
p6499
aVtime
p6500
aVgreat
p6501
aVtime
p6502
aVandr
p6503
asV6506593
p6504
(lp6505
Vgreat
p6506
aVstay
p6507
aVneed
p6508
aVlocat
p6509
aVgreat
p6510
aVhous
p6511
aVhous
p6512
aVlocat
p6513
aVstreet
p6514
aVneighborhood
p6515
aVbeauti
p6516
aVarriv
p6517
aVstay
p6518
aVhous
p6519
aVmaike
p6520
asV870705
p6521
(lp6522
Vdaniel
p6523
aVplace
p6524
aVstay
p6525
aVdaniel
p6526
ag5
aVgreat
p6527
aVgreat
p6528
aVdaniel
p6529
aVus
p6530
aVnou
p6531
aVle
p6532
aVdaniel
p6533
aVplace
p6534
aVcar
p6535
asV8654493
p6536
(lp6537
Vhelp
p6538
aVfelt
p6539
aVgreat
p6540
aVplace
p6541
aVnice
p6542
aVgood
p6543
aVcheck
p6544
aVchintak
p6545
aVmake
p6546
aVchintak
p6547
aVplace
p6548
aVtransit
p6549
aVchintak
p6550
aVplace
p6551
aVtop
p6552
asV8382187
p6553
(lp6554
Vplace
p6555
aVludmela
p6556
aVexcel
p6557
aVludmela
p6558
ag5
aVlocat
p6559
aVpark
p6560
aVbu
p6561
aVludmela
p6562
aVpark
p6563
aVgate
p6564
aVgolden
p6565
aVhost
p6566
aVroom
p6567
aVpark
p6568
asV6405183
p6569
(lp6570
Vrecomend
p6571
aVvivienda
p6572
aVencontrado
p6573
aVtodo
p6574
aVmuy
p6575
ag16
ag16
aVmuy
p6576
aVtodo
p6577
aVpor
p6578
aVresidenci
p6579
ag16
aVde
p6580
aVvivienda
p6581
asV4286316
p6582
(lp6583
Vlauren
p6584
aVrecommend
p6585
aVnice
p6586
aVhighli
p6587
aVrecommend
p6588
aVfriendli
p6589
aVwell
p6590
aVlauren
p6591
aVhusband
p6592
aVplace
p6593
aVamaz
p6594
aVvisit
p6595
aVeveryth
p6596
aVlauren
p6597
aVstay
p6598
asV1121697
p6599
(lp6600
Vgreat
p6601
aVhous
p6602
aVroom
p6603
aVus
p6604
aVstay
p6605
aVrealli
p6606
aVspaciou
p6607
aVlocat
p6608
aVfriend
p6609
aVeven
p6610
aVlocat
p6611
aVspaciou
p6612
aVgiancarlo
p6613
aVvisit
p6614
aVgroup
p6615
asV2950300
p6616
(lp6617
Vemili
p6618
aVeasi
p6619
aVkind
p6620
aVde
p6621
aVrealli
p6622
aVhous
p6623
aVemili
p6624
aVroom
p6625
aVgreat
p6626
aVflat
p6627
aVroom
p6628
aVaway
p6629
aVstay
p6630
aVemili
p6631
aVplace
p6632
asV2227475
p6633
(lp6634
Vjulia
p6635
aVus
p6636
aVrealli
p6637
aVjulia
p6638
aVnice
p6639
aVflat
p6640
aVjulia
p6641
aVplace
p6642
aVgreat
p6643
aVjulia
p6644
aVplace
p6645
aVstay
p6646
aVgreat
p6647
aVjulia
p6648
aVapart
p6649
asV437385
p6650
(lp6651
Vmelani
p6652
aVstay
p6653
ag5
aVwell
p6654
aVwill
p6655
aVclean
p6656
aVde
p6657
aVla
p6658
aVet
p6659
aVus
p6660
aVmelani
p6661
aVhost
p6662
aVmelani
p6663
aVhome
p6664
aVlove
p6665
asV2645947
p6666
(lp6667
Vstay
p6668
aVapart
p6669
aVclean
p6670
aVstay
p6671
aVjohn
p6672
aVallison
p6673
aVgreat
p6674
aVstay
p6675
aVapart
p6676
aVallison
p6677
aVflat
p6678
aVjohn
p6679
aVflat
p6680
aVgreat
p6681
aVlist
p6682
asV487019
p6683
(lp6684
Vken
p6685
aVfranklin
p6686
aVcat
p6687
aVstay
p6688
aVlove
p6689
aVbu
p6690
aVde
p6691
aVpara
p6692
aVo
p6693
aVcat
p6694
aVapart
p6695
aVus
p6696
asV1892949
p6697
(lp6698
g5
aVrealli
p6699
aVryan
p6700
aVplace
p6701
aVapart
p6702
aVcheck
p6703
aVryan
p6704
aVflat
p6705
aVplace
p6706
aVryan
p6707
aVapart
p6708
aVlocat
p6709
ag5
aVstay
p6710
aVgreat
p6711
asV4122750
p6712
(lp6713
Vlook
p6714
aVdrew
p6715
aVtime
p6716
aVclean
p6717
aVsuper
p6718
aVdefinit
p6719
aVgreat
p6720
aVlocat
p6721
ag5
aVclean
p6722
aVdefinit
p6723
aVpictur
p6724
aVapart
p6725
aVstay
p6726
aVgreat
p6727
asV3433930
p6728
(lp6729
Vpaul
p6730
aVstay
p6731
aVhost
p6732
aVpaul
p6733
aVview
p6734
aVstay
p6735
aVpaul
p6736
aVstay
p6737
aVfrancisco
p6738
aVciti
p6739
aVpaul
p6740
aVview
p6741
aVpaul
p6742
aVstay
p6743
aVgreat
p6744
asV5481377
p6745
(lp6746
Vdustin
p6747
aVtime
p6748
aVsan
p6749
aVcool
p6750
aValso
p6751
aVnight
p6752
aVplace
p6753
aVdustin
p6754
aVroom
p6755
aVbest
p6756
aVhost
p6757
aVdustin
p6758
aVstay
p6759
aVgreat
p6760
aVeasi
p6761
asV8261649
p6762
(lp6763
Valway
p6764
aVnice
p6765
aVeveryth
p6766
aVnice
p6767
aVrealli
p6768
aVwonder
p6769
aVflat
p6770
aVoven
p6771
aVlaundri
p6772
aVnice
p6773
aVwonder
p6774
aVrealli
p6775
aVrealli
p6776
aVwonder
p6777
aVnice
p6778
asV336054
p6779
(lp6780
Vapart
p6781
aVjeremi
p6782
aVgreat
p6783
aVstay
p6784
aVus
p6785
aVday
p6786
aVthank
p6787
aVshort
p6788
aVnotic
p6789
aVstay
p6790
aVgreat
p6791
aVsf
p6792
aVjeremi
p6793
aVstay
p6794
aVcheck
p6795
asV2430258
p6796
(lp6797
Vla
p6798
aVdie
p6799
aVsehr
p6800
aVde
p6801
aVel
p6802
ag5
aVdie
p6803
aVhat
p6804
aVwohnung
p6805
aVet
p6806
aVsf
p6807
aVstay
p6808
aVgreat
p6809
aVapart
p6810
asV1015336
p6811
(lp6812
Vhome
p6813
aVus
p6814
aVpark
p6815
aVinform
p6816
aVhelp
p6817
aVexcel
p6818
aVhelp
p6819
aVexcel
p6820
aVinform
p6821
aVinform
p6822
aVhelp
p6823
aVexcel
p6824
aVjacinta
p6825
aVneighbourhood
p6826
aVmake
p6827
asV1879877
p6828
(lp6829
Vcheck
p6830
aVnice
p6831
aVneed
p6832
aVstay
p6833
aVdre
p6834
aVplace
p6835
aVhome
p6836
aVautom
p6837
aVreserv
p6838
aVdre
p6839
aVgreat
p6840
aVbalconi
p6841
aVdre
p6842
aVarriv
p6843
aVus
p6844
asV8372043
p6845
(lp6846
Vneed
p6847
aVapart
p6848
aVstore
p6849
aVapart
p6850
aVcook
p6851
aVkitchen
p6852
aVapart
p6853
aVlight
p6854
aVnext
p6855
aVbar
p6856
aVeveryth
p6857
aVvictori
p6858
aVstock
p6859
aVneed
p6860
aVeveryth
p6861
asV6185160
p6862
(lp6863
Veasi
p6864
aVget
p6865
aVlocat
p6866
aVcomfort
p6867
aVterri
p6868
aVview
p6869
aVnice
p6870
aVstay
p6871
aVgreat
p6872
aVterri
p6873
aVstay
p6874
aVgood
p6875
aVgood
p6876
aVaround
p6877
aVtown
p6878
asV960593
p6879
(lp6880
Vchuck
p6881
aVus
p6882
aVstay
p6883
aVchuck
p6884
aVgreat
p6885
aVnice
p6886
aVde
p6887
aVchuck
p6888
aVet
p6889
aVchuck
p6890
aVask
p6891
aVwonder
p6892
aVwalk
p6893
aVanyth
p6894
aVpark
p6895
asV585225
p6896
(lp6897
Vstay
p6898
aVgabriel
p6899
aVstudio
p6900
aVwalk
p6901
aVleav
p6902
aVcare
p6903
aVstay
p6904
aVplace
p6905
aVgabe
p6906
aVde
p6907
aVest
p6908
aVgreat
p6909
aVstay
p6910
aVstudio
p6911
asV92249
p6912
(lp6913
Vclean
p6914
aVgreat
p6915
aVeveryth
p6916
aVperfect
p6917
aVdefinit
p6918
aVexcel
p6919
aVgreat
p6920
aVclean
p6921
aVtotal
p6922
aVgreat
p6923
aVclean
p6924
aVsuper
p6925
aVgreat
p6926
aVclean
p6927
aVreturn
p6928
asV728486
p6929
(lp6930
Vstay
p6931
aVpeter
p6932
aVplace
p6933
aVapart
p6934
aVpeter
p6935
aVjohn
p6936
aVpeter
p6937
aVjohn
p6938
ag5
aVstay
p6939
aVrecommend
p6940
aVlocat
p6941
aVjohn
p6942
aVlocat
p6943
aVpeter
p6944
asV228265
p6945
(lp6946
Vsarah
p6947
aVlove
p6948
aVstay
p6949
aVsarah
p6950
ag5
aVplace
p6951
aVsarah
p6952
aVloft
p6953
aVplace
p6954
aVsarah
p6955
aVgreat
p6956
aVplace
p6957
aVsuper
p6958
aVclean
p6959
aVmodern
p6960
asV134193
p6961
(lp6962
Vhous
p6963
aVgreat
p6964
aVstay
p6965
aVbeauti
p6966
aVhome
p6967
aVcan
p6968
aVhous
p6969
aVgreat
p6970
aVfamili
p6971
aVminut
p6972
aVhous
p6973
aVdiscov
p6974
aVlove
p6975
aVpark
p6976
aVrestaur
p6977
asV1910127
p6978
(lp6979
Vjune
p6980
aVhous
p6981
aVgreat
p6982
aVhous
p6983
aVrespons
p6984
aVjune
p6985
aVbeauti
p6986
aVexcel
p6987
aVamaz
p6988
aVlocat
p6989
aVdefinit
p6990
aVwell
p6991
aVhous
p6992
aVhelp
p6993
asV4510968
p6994
(lp6995
Vdie
p6996
aVanna
p6997
aVagenc
p6998
aVun
p6999
aVla
p7000
aVapart
p7001
aVbart
p7002
ag304
aVgreat
p7003
aVtime
p7004
aVclose
p7005
aVapart
p7006
aVplace
p7007
aVlove
p7008
asV504146
p7009
(lp7010
Vlaura
p7011
aVus
p7012
aVclean
p7013
aVgreat
p7014
aVlaura
p7015
aVus
p7016
aVlaura
p7017
aVgreat
p7018
aVplace
p7019
aVgreat
p7020
aVlaura
p7021
aVrestaur
p7022
aVlocat
p7023
aVapart
p7024
aVwalk
p7025
asV4776359
p7026
(lp7027
Vmorgan
p7028
aVplace
p7029
aVlocat
p7030
aVplace
p7031
aVmorgan
p7032
aVhome
p7033
aVarriv
p7034
aVautom
p7035
aVcancel
p7036
aVwork
p7037
aVspace
p7038
aVmorgan
p7039
aVamaz
p7040
aVrelax
p7041
aVtha
p7042
asV1479153
p7043
(lp7044
Vappart
p7045
aVemili
p7046
aVde
p7047
aVleft
p7048
aVlove
p7049
aVneed
p7050
ag5
aVstay
p7051
aVneighborhood
p7052
aVemili
p7053
aVlove
p7054
aVneed
p7055
aVleft
p7056
aVlove
p7057
aVneed
p7058
asV4566966
p7059
(lp7060
Vgreat
p7061
ag304
aVapart
p7062
aVstay
p7063
aVget
p7064
aVplace
p7065
aVmichael
p7066
aVapart
p7067
aVstay
p7068
aVplace
p7069
aVgreat
p7070
aVstreet
p7071
aVstay
p7072
aVplace
p7073
aVwalk
p7074
asV7023745
p7075
(lp7076
Vtop
p7077
aVmorn
p7078
aVoutsid
p7079
aVgayl
p7080
aVgreat
p7081
aVwelcom
p7082
aVgreat
p7083
aVgayl
p7084
aVwelcom
p7085
aVgayl
p7086
aVwelcom
p7087
aVgreat
p7088
aVgreat
p7089
aVwelcom
p7090
aVgayl
p7091
asV1489036
p7092
(lp7093
Vapart
p7094
aVfriendli
p7095
aVhost
p7096
ag5
aVmade
p7097
aVperfect
p7098
aVapart
p7099
ag304
aVpasha
p7100
aVstay
p7101
ag5
aVsolid
p7102
aVhost
p7103
aVday
p7104
aVpost
p7105
asV5194736
p7106
(lp7107
Vstay
p7108
ag5
aVthank
p7109
aVarriv
p7110
aVautom
p7111
aVcancel
p7112
aVlove
p7113
aVaccommod
p7114
aVhost
p7115
aVhome
p7116
aVnanci
p7117
aVjohn
p7118
aVhous
p7119
aVbedroom
p7120
aVarriv
p7121
asV624195
p7122
(lp7123
Vlex
p7124
aVapart
p7125
ag5
aVlocat
p7126
aVstay
p7127
aVstudio
p7128
aVgreat
p7129
ag5
aVlex
p7130
aVstay
p7131
aVplace
p7132
aVlove
p7133
aVstay
p7134
ag5
aVgreat
p7135
asV1864390
p7136
(lp7137
Vkaleen
p7138
aVstay
p7139
aVus
p7140
aVgreat
p7141
aVkaleen
p7142
aVapart
p7143
aVkaleen
p7144
aVapart
p7145
aVus
p7146
aVde
p7147
aVkaleen
p7148
ag662
aVun
p7149
aVde
p7150
aVund
p7151
asV4987515
p7152
(lp7153
Vwell
p7154
aVplace
p7155
aVcommun
p7156
aVcommun
p7157
aVfantast
p7158
aVlonger
p7159
aVplace
p7160
aVcommun
p7161
aVwish
p7162
aVstay
p7163
aVgreat
p7164
aVsteph
p7165
aVplace
p7166
aVcommun
p7167
aVwish
p7168
asV1832862
p7169
(lp7170
Vgreat
p7171
aVplace
p7172
aVclean
p7173
aVapart
p7174
aVstay
p7175
ag5
aVus
p7176
aVlocat
p7177
aVleft
p7178
aVmoe
p7179
aVgreat
p7180
aVperfect
p7181
aVcheck
p7182
aVwell
p7183
aVconveni
p7184
asV6423969
p7185
(lp7186
Vboat
p7187
aVgame
p7188
aVcomfort
p7189
aVboat
p7190
aVbathroom
p7191
aVmarina
p7192
aVgreat
p7193
aVcan
p7194
aVboat
p7195
aVstay
p7196
aVdock
p7197
aVus
p7198
aVboat
p7199
aVgreat
p7200
aVwell
p7201
asV4804120
p7202
(lp7203
Vautom
p7204
aVday
p7205
aVcancel
p7206
aVday
p7207
aVautom
p7208
aVautom
p7209
aVday
p7210
aVpost
p7211
aVarriv
p7212
aVreserv
p7213
aVcancel
p7214
aVday
p7215
aVpost
p7216
aVhost
p7217
asV276072
p7218
(lp7219
Vgreat
p7220
aVgene
p7221
aVstay
p7222
aVgene
p7223
aVplace
p7224
ag5
aVgreat
p7225
aVgene
p7226
aVmission
p7227
aVgene
p7228
aVrecommend
p7229
aVapart
p7230
aVgene
p7231
aVstay
p7232
aVrecommend
p7233
asV1827638
p7234
(lp7235
Vfood
p7236
aVright
p7237
aVlocat
p7238
aVlocat
p7239
aVacross
p7240
aVwhole
p7241
aVawesom
p7242
aVwhole
p7243
aVacross
p7244
aVfood
p7245
aVright
p7246
aVnew
p7247
aVhome
p7248
aVstreet
p7249
aVbran
p7250
asV8241372
p7251
(lp7252
Vgreat
p7253
aVlocat
p7254
aVapart
p7255
aVjabra
p7256
aVapart
p7257
aVwill
p7258
aVjabra
p7259
aVlocat
p7260
aVgreat
p7261
aVeasi
p7262
aVgreat
p7263
aVlocat
p7264
aVfriend
p7265
aVcool
p7266
aVrecommend
p7267
asV7004908
p7268
(lp7269
Vde
p7270
aVnou
p7271
aVnick
p7272
aVnice
p7273
aVroom
p7274
aVplace
p7275
aVnick
p7276
ag5
aVfull
p7277
aVnick
p7278
aVstay
p7279
ag5
aVarriv
p7280
aVreserv
p7281
aVday
p7282
asV6572428
p7283
(lp7284
Vday
p7285
aVarriv
p7286
aVautom
p7287
aVreserv
p7288
aVcancel
p7289
aVpost
p7290
aVhost
p7291
aVpost
p7292
aVpost
p7293
aVautom
p7294
aVarriv
p7295
aVreserv
p7296
aVautom
p7297
aVpost
p7298
asV5605968
p7299
(lp7300
Vclean
p7301
aVjoe
p7302
aVthank
p7303
aVstay
p7304
aVlocat
p7305
aVeven
p7306
aVhost
p7307
aVless
p7308
aVstay
p7309
aVgreat
p7310
aVjonathan
p7311
aVstreet
p7312
aVcheck
p7313
aVprovid
p7314
asV2242739
p7315
(lp7316
Vhat
p7317
aVapart
p7318
aVdecor
p7319
aVgreat
p7320
aVaround
p7321
aVvisit
p7322
aVspace
p7323
aVdeanna
p7324
ag5
aVdecor
p7325
aVsan
p7326
aVhat
p7327
aVhat
p7328
aVdecor
p7329
aVhost
p7330
asV4370547
p7331
(lp7332
Varriv
p7333
aVcancel
p7334
aVhost
p7335
aVhost
p7336
aVgreat
p7337
aVstay
p7338
aVcancel
p7339
aVarriv
p7340
aVreserv
p7341
aVcecchi
p7342
aVclean
p7343
ag5
aVcancel
p7344
aVarriv
p7345
aVhost
p7346
asV840986
p7347
(lp7348
Vstay
p7349
aVaddi
p7350
aVplace
p7351
aVapart
p7352
aVpark
p7353
aVaddi
p7354
aVapart
p7355
aVstay
p7356
aVlove
p7357
aVund
p7358
aVda
p7359
aVdie
p7360
aVapart
p7361
aVaddi
p7362
aVnice
p7363
asV2304925
p7364
(lp7365
Vday
p7366
aVplace
p7367
aVlove
p7368
aVnice
p7369
aVplace
p7370
aVlot
p7371
aVbjorn
p7372
aVplace
p7373
aVclean
p7374
aVbjorn
p7375
aVplace
p7376
aVcoffe
p7377
aVbjorn
p7378
aVcoffe
p7379
aVget
p7380
asV5458248
p7381
(lp7382
Vemili
p7383
aVgood
p7384
aVperson
p7385
aVhaven
p7386
aVrental
p7387
aVgo
p7388
aVrestaur
p7389
aVwalk
p7390
aVfelt
p7391
aVaround
p7392
aVrestaur
p7393
ag5
aVneed
p7394
aVwell
p7395
aVemili
p7396
asV4725008
p7397
(lp7398
Vgo
p7399
aVgreat
p7400
aVciti
p7401
aVflat
p7402
aVshower
p7403
aVmikhail
p7404
aVno
p7405
aVfrancisco
p7406
aVview
p7407
aVamaz
p7408
aVaccess
p7409
aVview
p7410
aVtout
p7411
asV1190336
p7412
(lp7413
Vandrew
p7414
aVstay
p7415
aVapart
p7416
aVroom
p7417
aVgreat
p7418
aVeasi
p7419
aVnice
p7420
aVquiet
p7421
aVlove
p7422
aVandrew
p7423
aVgreat
p7424
aVhelp
p7425
aVde
p7426
aVen
p7427
ag16
asV8306266
p7428
(lp7429
Vstay
p7430
aVhost
p7431
aVtext
p7432
aVuse
p7433
aVdetail
p7434
aVtime
p7435
aVtime
p7436
aVlive
p7437
aVrespons
p7438
aVpleas
p7439
aVmade
p7440
aVdirect
p7441
aVmake
p7442
aVdetail
p7443
aVaround
p7444
asV8236377
p7445
(lp7446
Vla
p7447
aVque
p7448
ag16
aVenjoy
p7449
aVnice
p7450
aVplace
p7451
aVmari
p7452
aVplace
p7453
ag5
aVstay
p7454
aVplace
p7455
aVgreat
p7456
aVgood
p7457
aVperfect
p7458
aVclean
p7459
asV2508480
p7460
(lp7461
Vpeter
p7462
aVstay
p7463
aVhost
p7464
aVpeter
p7465
aVroom
p7466
aVhost
p7467
aVde
p7468
aVla
p7469
aVun
p7470
aVpeter
p7471
aVgreat
p7472
aVroom
p7473
aVpeter
p7474
aVhome
p7475
aVsan
p7476
asV3836052
p7477
(lp7478
Vdeena
p7479
aVstay
p7480
aVplace
p7481
aVdeena
p7482
aVplace
p7483
aVrecommend
p7484
aVgreat
p7485
aVdeena
p7486
aVhost
p7487
aVclose
p7488
ag304
aVapart
p7489
aVdeena
p7490
aVus
p7491
ag5
asV917988
p7492
(lp7493
Vwhatsoev
p7494
aValso
p7495
aVissu
p7496
aVwhatsoev
p7497
aVissu
p7498
aVeasi
p7499
aVnice
p7500
aVwork
p7501
aVroommat
p7502
aVissu
p7503
aVwhatsoev
p7504
aVwork
p7505
aVwhatsoev
p7506
aVissu
p7507
aValso
p7508
asV7673433
p7509
(lp7510
Vtogeth
p7511
aVstay
p7512
aVcomfort
p7513
aVfriendli
p7514
aVton
p7515
aVcorner
p7516
aVaround
p7517
aVgreat
p7518
aVamaz
p7519
aVmake
p7520
aVton
p7521
aVgreat
p7522
aVretsillacm
p7523
aVlove
p7524
ag5
asV7859616
p7525
(lp7526
Vduncan
p7527
aVnice
p7528
aVhome
p7529
aVgreat
p7530
aVduncan
p7531
aVroom
p7532
aVgreat
p7533
aVenjoy
p7534
ag5
aVgreat
p7535
aVroom
p7536
aVstay
p7537
aVcommon
p7538
aVhost
p7539
aVfeel
p7540
asV1180103
p7541
(lp7542
g5
aVheidi
p7543
aVparticularli
p7544
aVheidi
p7545
aVgreat
p7546
ag5
ag5
aVheidi
p7547
aVeasi
p7548
ag5
aVheidi
p7549
aVeasi
p7550
aVgreat
p7551
aVbnb
p7552
aVeven
p7553
asV5394389
p7554
(lp7555
Vgreat
p7556
aVkevin
p7557
aVthank
p7558
aVkevin
p7559
aVstay
p7560
ag304
aVkevin
p7561
aVlocat
p7562
aVcastro
p7563
aVcheck
p7564
aVcome
p7565
aVnice
p7566
aVkevin
p7567
aVspace
p7568
aVhost
p7569
asV1579281
p7570
(lp7571
Vflat
p7572
aVstay
p7573
aVpeopl
p7574
aVde
p7575
aVse
p7576
aVyanni
p7577
aVgreat
p7578
aVstay
p7579
aVlocat
p7580
aVstay
p7581
aVrecommend
p7582
aVloft
p7583
aVyanni
p7584
aVkate
p7585
asV3953643
p7586
(lp7587
Vkathryn
p7588
aVgreat
p7589
aVtime
p7590
aVwelcom
p7591
aVfeel
p7592
aVclean
p7593
aVfeel
p7594
aVwelcom
p7595
aVnice
p7596
aVkathryn
p7597
aVplace
p7598
aVhost
p7599
aVclean
p7600
aVnice
p7601
aVinstruct
p7602
asV6798653
p7603
(lp7604
Varriv
p7605
aVlocat
p7606
aVperfect
p7607
aVarriv
p7608
aVcomfort
p7609
aVlocat
p7610
aVtime
p7611
aVpark
p7612
aVhous
p7613
aVhome
p7614
aVjj
p7615
aVlove
p7616
aVarriv
p7617
aVperfect
p7618
aVlocat
p7619
asV4699970
p7620
(lp7621
Vthank
p7622
aVgorgeou
p7623
aVfrancisco
p7624
aVthank
p7625
aVgorgeou
p7626
aVfrancisco
p7627
aVview
p7628
aVroom
p7629
aVplace
p7630
aVwoodi
p7631
aVstay
p7632
aVplace
p7633
aVest
p7634
aVet
p7635
aVde
p7636
asV1280637
p7637
(lp7638
Varound
p7639
aVthorina
p7640
aVgreat
p7641
aVthorina
p7642
aVtravel
p7643
aVfirst
p7644
aVeasi
p7645
ag5
aVlocat
p7646
aVeven
p7647
aVneighbour
p7648
aVaround
p7649
aVgo
p7650
aVlocat
p7651
aVaround
p7652
asV6798309
p7653
(lp7654
Vstay
p7655
aVgreat
p7656
aVblock
p7657
aVeveryth
p7658
aVenjoy
p7659
aVstay
p7660
aVenjoy
p7661
aVneed
p7662
aVeveryth
p7663
aVeveryth
p7664
aVenjoy
p7665
aVneed
p7666
aVneed
p7667
aVenjoy
p7668
aVeveryth
p7669
asV7146315
p7670
(lp7671
Vgreat
p7672
aVstay
p7673
aVlist
p7674
aVtricia
p7675
aVprovid
p7676
aVspace
p7677
aVwell
p7678
aVarriv
p7679
aVhost
p7680
aVplace
p7681
aVwork
p7682
aVcozi
p7683
aVtricia
p7684
aVwell
p7685
aVarriv
p7686
asV2802480
p7687
(lp7688
Vnice
p7689
aVstay
p7690
aVus
p7691
aVapart
p7692
aVgreat
p7693
aValessandra
p7694
aVgreat
p7695
aValessandra
p7696
aVapart
p7697
aVhelp
p7698
aVhost
p7699
aVandra
p7700
aVgreat
p7701
aVstay
p7702
aVtrip
p7703
asV8553341
p7704
(lp7705
Vdescrib
p7706
aVroom
p7707
aVhelp
p7708
aVdescrib
p7709
aVhelp
p7710
aVgreat
p7711
aVdescrib
p7712
aVroom
p7713
aVhelp
p7714
aVming
p7715
aVclean
p7716
aVstay
p7717
asV7030125
p7718
(lp7719
Vhighli
p7720
aVrecommend
p7721
ag5
aVhighli
p7722
ag5
aVrecommend
p7723
aVplace
p7724
aVgreat
p7725
aVlocat
p7726
aVhighli
p7727
aVrecommend
p7728
ag5
aVhighli
p7729
aVrecommend
p7730
ag5
asV8613437
p7731
(lp7732
Vpro
p7733
aVearplug
p7734
aVprice
p7735
aVdirti
p7736
aVmurphi
p7737
aVdecent
p7738
aVgener
p7739
aVlocat
p7740
aVsuffici
p7741
aVleg
p7742
aVrepres
p7743
aVpeopl
p7744
aVbed
p7745
aVbring
p7746
asV915058
p7747
(lp7748
Vplace
p7749
aVamaz
p7750
aVhost
p7751
aVskate
p7752
aVjeanni
p7753
aVthk
p7754
aVhous
p7755
aVenough
p7756
aVtime
p7757
aVgarden
p7758
aVplace
p7759
aVjeanni
p7760
aVplace
p7761
aVgarden
p7762
aVskate
p7763
asV2967728
p7764
(lp7765
Vhome
p7766
aVfamili
p7767
aVus
p7768
aVhome
p7769
aVstay
p7770
aVgreat
p7771
aVus
p7772
aVfamili
p7773
aVhome
p7774
aVgreat
p7775
aVlocat
p7776
aVjame
p7777
aVus
p7778
aVfamili
p7779
aVhome
p7780
asV7859806
p7781
(lp7782
Vgreat
p7783
aValso
p7784
ag5
aVcomfort
p7785
aVlocat
p7786
aVfairli
p7787
aVsituat
p7788
aVlocat
p7789
aVlogist
p7790
aVstay
p7791
aVfairli
p7792
aVplace
p7793
aVplace
p7794
aVstreet
p7795
aVbit
p7796
asV6915290
p7797
(lp7798
Venjoy
p7799
aVeven
p7800
aVwalk
p7801
aVapart
p7802
aVlinda
p7803
aVgreat
p7804
aVlinda
p7805
ag5
aVplace
p7806
aVus
p7807
aVlinda
p7808
aVlike
p7809
aVhost
p7810
aVlinda
p7811
aVstay
p7812
asV3041694
p7813
(lp7814
Vtom
p7815
aVplace
p7816
aVstay
p7817
aVeasi
p7818
aVget
p7819
aVgo
p7820
aVtom
p7821
aVstay
p7822
aVcomfort
p7823
aVwill
p7824
aVroom
p7825
aVgreat
p7826
aVstay
p7827
aVtom
p7828
ag5
asV1007157
p7829
(lp7830
Vet
p7831
aVde
p7832
aVgreat
p7833
aVplace
p7834
aVstay
p7835
aVgreat
p7836
aVstay
p7837
ag5
aVle
p7838
aVde
p7839
aVget
p7840
aVetc
p7841
aVfood
p7842
asV7367530
p7843
(lp7844
Vlocat
p7845
aVgreat
p7846
aVamaz
p7847
aVroom
p7848
aVlocat
p7849
aVclean
p7850
aVlocat
p7851
aVgood
p7852
aVfantast
p7853
aVdorm
p7854
aVplace
p7855
aVdefinit
p7856
aVclean
p7857
aVroom
p7858
aVlocat
p7859
asV7493513
p7860
(lp7861
Vpleasant
p7862
aVwill
p7863
aVhonestli
p7864
aVhonestli
p7865
aVwill
p7866
aVgreat
p7867
aVvisit
p7868
aVfriend
p7869
aVwill
p7870
aVsan
p7871
aVfrancisco
p7872
aVbusi
p7873
aVangela
p7874
aVquiet
p7875
asV8975105
p7876
(lp7877
Vlarg
p7878
aVplace
p7879
aVneed
p7880
aVlight
p7881
aVlot
p7882
aVtrip
p7883
aVlarg
p7884
aVplace
p7885
aVuse
p7886
aVplace
p7887
aVlarg
p7888
aVneed
p7889
aVplace
p7890
aVlarg
p7891
aVandrea
p7892
asV633629
p7893
(lp7894
Vstop
p7895
aVandrea
p7896
aVgood
p7897
aVandrea
p7898
aVstay
p7899
aVrealli
p7900
aVandrea
p7901
aVstay
p7902
aVbart
p7903
aVstay
p7904
aVsan
p7905
aVairbnb
p7906
ag662
aVla
p7907
aVmake
p7908
asV7181655
p7909
(lp7910
Veric
p7911
aVfriend
p7912
aVhous
p7913
aVgreat
p7914
aVhome
p7915
aVeveryon
p7916
aVgood
p7917
aVshort
p7918
aVstay
p7919
aVeric
p7920
aVhous
p7921
aVthank
p7922
aVlove
p7923
aVhome
p7924
aVsite
p7925
asV1815437
p7926
(lp7927
Vsean
p7928
aVroom
p7929
aVapart
p7930
aVstay
p7931
aVgreat
p7932
aVroom
p7933
aValso
p7934
aVheat
p7935
aVroom
p7936
aVplace
p7937
aVconveni
p7938
ag5
ag5
aVroom
p7939
aVbathroom
p7940
asV6782479
p7941
(lp7942
Vhome
p7943
aVplace
p7944
ag5
aVstay
p7945
aVpiano
p7946
aVsafe
p7947
aVre
p7948
aVpiano
p7949
ag5
aVgreat
p7950
aVtrip
p7951
aVneighborhood
p7952
ag5
aVlike
p7953
aVpriyah
p7954
asV7292878
p7955
(lp7956
Vrob
p7957
aVplace
p7958
aValso
p7959
aVstay
p7960
aVenjoy
p7961
aVanswer
p7962
aVrob
p7963
aVapart
p7964
aVhill
p7965
aVblock
p7966
aVaway
p7967
aVhill
p7968
aVapart
p7969
aVarea
p7970
aVminut
p7971
asV1264674
p7972
(lp7973
Vplace
p7974
ag5
aVclose
p7975
aVgreat
p7976
aVhost
p7977
aVhelp
p7978
aVhelp
p7979
aVhost
p7980
aVcommun
p7981
aVgreat
p7982
aVhelp
p7983
aVcommun
p7984
aVstay
p7985
aVjenif
p7986
aVcommun
p7987
asV1633881
p7988
(lp7989
Vplush
p7990
aVeasi
p7991
aVfood
p7992
aVplush
p7993
aVeasi
p7994
aVfood
p7995
aVapart
p7996
aVlocat
p7997
aVloft
p7998
ag5
aVstair
p7999
aVbeauti
p8000
aVhot
p8001
aVcomfort
p8002
asV2355859
p8003
(lp8004
Vstay
p8005
aVapart
p8006
aVrobert
p8007
aVrobert
p8008
aVapart
p8009
aVhost
p8010
aVgreat
p8011
aVrobert
p8012
aVstay
p8013
aVwell
p8014
aVsf
p8015
aVplace
p8016
aVnice
p8017
aVapart
p8018
asV678453
p8019
(lp8020
Vjohn
p8021
aVback
p8022
aVcome
p8023
aVstay
p8024
aVjohn
p8025
aVgreat
p8026
aVeasi
p8027
aVfloor
p8028
aVright
p8029
aVjohn
p8030
aVspace
p8031
aVgood
p8032
ag304
aVgreat
p8033
aVfeel
p8034
asV4094105
p8035
(lp8036
Vhighli
p8037
aVbay
p8038
aVplace
p8039
aVplace
p8040
aVeri
p8041
aVlocat
p8042
aVeri
p8043
aVapart
p8044
aVeasi
p8045
aVwalk
p8046
aVmarina
p8047
aVstay
p8048
aVeri
p8049
aVplace
p8050
ag5
asV1183454
p8051
(lp8052
Vstay
p8053
aVsamantha
p8054
aVroom
p8055
aVgreat
p8056
aVrealli
p8057
aVhous
p8058
aVsamantha
p8059
ag662
aVla
p8060
aVsamantha
p8061
aVget
p8062
aVus
p8063
aVstay
p8064
aVcat
p8065
aVplace
p8066
asV1886260
p8067
(lp8068
Vgiancarlo
p8069
aVhost
p8070
aVstay
p8071
aVgiancarlo
p8072
aVgreat
p8073
aVsan
p8074
aVstay
p8075
ag304
aVpark
p8076
ag5
aVgreat
p8077
aVplace
p8078
aVgiancarlo
p8079
aVgreat
p8080
aVtown
p8081
as.