(dp0
V6886839
p1
(lp2
Venjoy
p3
aVmake
p4
aVcollect
p5
aVluckili
p6
aVmuch
p7
aVrespons
p8
aVenjoy
p9
aVplace
p10
aVvinyl
p11
aVenjoy
p12
aVmake
p13
aVlemonad
p14
aVenjoy
p15
aVrecommend
p16
aVfresh
p17
asV1482697
p18
(lp19
Vproblem
p20
aVtime
p21
aVcall
p22
aVnoam
p23
aVpark
p24
aVapart
p25
aVplace
p26
aVnoam
p27
aVapart
p28
aVstay
p29
aVgreat
p30
aVplace
p31
aVbit
p32
aVapt
p33
aVnoam
p34
asV2197345
p35
(lp36
Vhous
p37
aVlinda
p38
aVdavid
p39
aVmake
p40
aVcomfi
p41
aVminut
p42
aVroom
p43
aVfriendli
p44
aVfloor
p45
aVdavid
p46
aVgreat
p47
aVlinda
p48
aVgreat
p49
aVstay
p50
aVdavid
p51
asV5004959
p52
(lp53
Vdog
p54
aVmight
p55
aVgood
p56
aVde
p57
aVet
p58
aVnou
p59
aVclean
p60
aVroom
p61
aVstop
p62
aVpaul
p63
aVmade
p64
aVfirst
p65
aVpaul
p66
aVrealli
p67
aVgreat
p68
asV6985033
p69
(lp70
Vabsolut
p71
aVroom
p72
aVbed
p73
aVroommat
p74
aVmj
p75
aVabsolut
p76
aVroommat
p77
aVkept
p78
aVabsolut
p79
aVbed
p80
aVroom
p81
aVabsolut
p82
aVstay
p83
aVnice
p84
aVcomfort
p85
asV7638111
p86
(lp87
Vapart
p88
aVstay
p89
aVdanni
p90
aVsan
p91
aVtime
p92
aVdogpatch
p93
aVclean
p94
aVeven
p95
aVfrancisco
p96
aVsan
p97
aVeven
p98
aVaddit
p99
aVquestion
p100
aVgood
p101
aVroom
p102
asV8212812
p103
(lp104
Vhost
p105
aVhost
p106
aVautom
p107
aVreserv
p108
aVeverywher
p109
aVrefund
p110
aVapart
p111
aVsai
p112
aVapart
p113
aVtiffani
p114
aVhost
p115
asV3334906
p116
(lp117
Vthank
p118
aVeasi
p119
aVspot
p120
aVapart
p121
aVcastro
p122
aVcristob
p123
aVstay
p124
aVgreat
p125
aVlocat
p126
aVapart
p127
aVsf
p128
aVnice
p129
aVgreat
p130
aVstay
p131
aVhelp
p132
asV6170306
p133
(lp134
Vuse
p135
aVdefinit
p136
aVhous
p137
aVnice
p138
aVhost
p139
aVhous
p140
aVstay
p141
aVhost
p142
aVgreat
p143
aVus
p144
aVs
p145
aVstay
p146
aVnice
p147
aVclean
p148
aVstay
p149
asV1641060
p150
(lp151
Vsharon
p152
aVgreat
p153
aVlocat
p154
aVsharon
p155
aVgreat
p156
aVstay
p157
aVsharon
p158
aVe
p159
aVmolt
p160
aVplace
p161
aVsharon
p162
ag145
aVsharon
p163
aVgreat
p164
aValso
p165
asV6655172
p166
(lp167
Vstay
p168
aVplace
p169
aVkid
p170
aVelsa
p171
aVgreat
p172
aVmade
p173
aVmade
p174
aVgreat
p175
aVelsa
p176
aVfeel
p177
aVwelcom
p178
aVvisit
p179
aVvisit
p180
aVmade
p181
aVgreat
p182
asV7714005
p183
(lp184
Vclean
p185
aVapart
p186
aVplace
p187
aVthank
p188
aVcoffe
p189
aVbeer
p190
aVview
p191
aVthank
p192
aVrecommend
p193
aVhome
p194
aVview
p195
aVderek
p196
aVright
p197
aVfrancisco
p198
aVsan
p199
asV8320256
p200
(lp201
Vgreat
p202
aVroom
p203
aVciti
p204
aValan
p205
aVhous
p206
aVstay
p207
aVund
p208
aVgute
p209
aVbu
p210
aVjust
p211
aVplace
p212
aVn
p213
aVmuch
p214
aVnice
p215
aValan
p216
asV2742151
p217
(lp218
Vstaci
p219
aVus
p220
ag145
aVstaci
p221
aVroom
p222
aVhost
p223
aVus
p224
aVstaci
p225
aVwell
p226
aVest
p227
aVstaci
p228
aVstaci
p229
aVhous
p230
aVstay
p231
asV8054733
p232
(lp233
Vneed
p234
aVnice
p235
aVperfect
p236
aVthank
p237
aVhome
p238
aVleft
p239
aVgreat
p240
aVneed
p241
aVperfect
p242
aVclean
p243
aVstay
p244
aVperfect
p245
aVclean
p246
aVapart
p247
aVvivian
p248
asV3701587
p249
(lp250
Vplace
p251
aVgood
p252
aVhost
p253
aVstay
p254
aVstartup
p255
aVhous
p256
aVgood
p257
aVhost
p258
aVstay
p259
aVconveni
p260
aVplenti
p261
aVmega
p262
aVgreat
p263
aVpeopl
p264
aVt
p265
asV948066
p266
(lp267
Vscott
p268
ag145
aVstay
p269
aVstay
p270
aVapart
p271
aVscott
p272
aVscott
p273
aVstudio
p274
aVstay
p275
aVscott
p276
aVclean
p277
aVstudio
p278
aVgreat
p279
aVscott
p280
aVstay
p281
asV6157066
p282
(lp283
Vhost
p284
aVberylu
p285
aVchang
p286
aVhost
p287
aVberylu
p288
aVfrancisco
p289
ag265
aVwasn
p290
aVclean
p291
aVhost
p292
aVberylu
p293
aVarriv
p294
aVappreci
p295
aVtrip
p296
aVaccommod
p297
asV56720
p298
(lp299
Vnice
p300
aValex
p301
aVhome
p302
aValex
p303
aVwife
p304
aVgener
p305
aVroom
p306
aValex
p307
aVgreat
p308
aVstay
p309
aValex
p310
aVroom
p311
aVstay
p312
aValex
p313
aVplace
p314
asV7240598
p315
(lp316
g265
aVhotel
p317
aVroom
p318
aVnight
p319
aVlocat
p320
aVroom
p321
aVroom
p322
aVclean
p323
aVlocat
p324
aVdescrib
p325
aVrecommend
p326
aVcool
p327
ag145
aVairbnb
p328
ag265
asV3789600
p329
(lp330
Vgreat
p331
aVplace
p332
aVlocat
p333
aVmuch
p334
ag265
aVtwo
p335
aVgreg
p336
aVgreat
p337
aVstay
p338
aVgreg
p339
aVhost
p340
aVgreat
p341
aVgreg
p342
ag145
aVstay
p343
asV2545771
p344
(lp345
Vgreat
p346
aVhous
p347
aVday
p348
aVjust
p349
aVdaniel
p350
aVtime
p351
aVfamili
p352
aVplace
p353
aVus
p354
aVhome
p355
aVhost
p356
aVstay
p357
aVdaniel
p358
asV297897
p359
(lp360
Vgreat
p361
aVtim
p362
aVus
p363
aVtim
p364
aVplace
p365
aVbeach
p366
aVtim
p367
ag145
aVus
p368
aVus
p369
aVtim
p370
aVhous
p371
aVstay
p372
aVus
p373
aVbeach
p374
asV1832479
p375
(lp376
Vstay
p377
aVplace
p378
aVenjoy
p379
aVbook
p380
aVplace
p381
aVnice
p382
aVbook
p383
aVstay
p384
aVnice
p385
aVplace
p386
aVenjoy
p387
aVbook
p388
aVenjoy
p389
aVnice
p390
aVstay
p391
asV8167459
p392
(lp393
Vmichel
p394
aVquiet
p395
aVneighborhood
p396
aVexcel
p397
aVmichel
p398
aVexperi
p399
aVwater
p400
aVocean
p401
aVsnack
p402
aVmichel
p403
aVbed
p404
aVbit
p405
aVmichel
p406
aVlove
p407
aVstay
p408
asV53715
p409
(lp410
Vsan
p411
aVfrancisco
p412
aVocean
p413
aVapart
p414
aVeven
p415
aVrobin
p416
aVgreat
p417
aVstay
p418
aVlocat
p419
aVroom
p420
aVbelinda
p421
aVplace
p422
aVgreat
p423
aVview
p424
aVday
p425
asV6473215
p426
(lp427
Vgood
p428
aVday
p429
aVlocat
p430
aVlocat
p431
aVgreat
p432
aVgood
p433
aVstay
p434
aVrealli
p435
aVnice
p436
aVgood
p437
aVday
p438
aVlocat
p439
aVtom
p440
aVnice
p441
aVplace
p442
asV2757282
p443
(lp444
Vapart
p445
aVstay
p446
aVgreat
p447
ag265
aVapart
p448
aVstay
p449
aVelizabeth
p450
aVneed
p451
aVgreat
p452
aVde
p453
aVy
p454
aVel
p455
aVstay
p456
aVwonder
p457
aVrecommend
p458
asV21914
p459
(lp460
g265
aVhost
p461
aVfanci
p462
aVtrain
p463
aVrun
p464
aVgreat
p465
aVstay
p466
aVplace
p467
aVde
p468
aVroom
p469
aVbathroom
p470
aVaaron
p471
aVaaron
p472
aVhous
p473
aVneed
p474
asV5960738
p475
(lp476
Vapart
p477
aVcole
p478
aVhaight
p479
aVapart
p480
aVcole
p481
aVhaight
p482
aVciti
p483
aVfamili
p484
aVcan
p485
aVlove
p486
aVplace
p487
aVapart
p488
aVhaight
p489
aVgreat
p490
aVrecommend
p491
asV1902917
p492
(lp493
Vrobert
p494
aVstay
p495
aVplace
p496
aVamaz
p497
aVapart
p498
aVgreat
p499
aVrobert
p500
ag145
aVgreat
p501
aVstay
p502
aVapart
p503
aVplace
p504
aVhome
p505
aVplace
p506
ag145
asV4891893
p507
(lp508
Vgreat
p509
aVlocat
p510
aVapart
p511
aVexperi
p512
aVaccess
p513
aVreach
p514
aVplace
p515
aVstay
p516
aVapart
p517
aVgreat
p518
aVtime
p519
aVwell
p520
aVde
p521
aVla
p522
aVet
p523
asV7716027
p524
(lp525
Vgreat
p526
aVnice
p527
aVview
p528
aVplace
p529
aVjessica
p530
aVtrip
p531
aVaccess
p532
aVfood
p533
aVjessica
p534
aVaccess
p535
aVfood
p536
aVjessica
p537
aVgood
p538
aVairbnb
p539
aVfriend
p540
asV7198666
p541
(lp542
Vlocat
p543
aVdana
p544
aVdistanc
p545
aVdana
p546
aVdistanc
p547
aVstay
p548
aVroom
p549
aVtime
p550
aVrealli
p551
aVgreat
p552
aVlocat
p553
aVgorgeou
p554
ag265
aVwasn
p555
aVnice
p556
asV4485074
p557
(lp558
Valissa
p559
aVfantast
p560
aVjust
p561
aVwonder
p562
aVrealli
p563
aVhost
p564
aVrealli
p565
aVhost
p566
aValissa
p567
aVlocat
p568
aVstay
p569
aVwell
p570
aVrealli
p571
aVhost
p572
aValissa
p573
asV4624467
p574
(lp575
Ven
p576
ag454
aVun
p577
aVstay
p578
aVgood
p579
aVyaella
p580
aVcheck
p581
aVsf
p582
aVhome
p583
aVyaella
p584
aVperfect
p585
aVthank
p586
aVyaella
p587
aVthank
p588
aVhome
p589
asV6910758
p590
(lp591
Vstay
p592
aVhost
p593
aVnice
p594
aVloft
p595
aVlocat
p596
aVmake
p597
aVhelp
p598
aVgreat
p599
aVplace
p600
aVbrad
p601
aVplace
p602
aVcomfort
p603
aVgreat
p604
aVlocat
p605
aVhost
p606
asV8051735
p607
(lp608
Vbig
p609
aVhous
p610
aVclean
p611
aVcomfort
p612
aVclean
p613
aVplace
p614
aVnice
p615
aVplace
p616
aVlittl
p617
aVlocat
p618
aVspot
p619
aVgreat
p620
aVwonder
p621
aVunderstand
p622
aVcomfort
p623
asV1847664
p624
(lp625
Vapart
p626
aVsehr
p627
aVlove
p628
aVplace
p629
aVnice
p630
aVjan
p631
aVjan
p632
ag145
aVbeauti
p633
aVplace
p634
aVgreat
p635
aVstay
p636
aVjan
p637
aVneed
p638
aVus
p639
asV3899371
p640
(lp641
Vsergey
p642
aVeveryth
p643
aVneed
p644
aVpost
p645
aVday
p646
aVcheck
p647
aVshort
p648
aVapart
p649
aVneed
p650
aVnice
p651
aVwill
p652
aVgreat
p653
aVnice
p654
aVwill
p655
asV8598558
p656
(lp657
Vcomfort
p658
aVbehind
p659
aVmoscon
p660
aVroom
p661
aVarum
p662
aVperfect
p663
aVroom
p664
aVcomfort
p665
aVarum
p666
ag145
aVstay
p667
aVplace
p668
aVroom
p669
aVcomfort
p670
aVarum
p671
asV9050940
p672
(lp673
Vhighli
p674
aVauthent
p675
aVpark
p676
aVsf
p677
aVhighli
p678
aVadvis
p679
aVhighli
p680
aVdefinit
p681
aVmani
p682
aVmani
p683
aVrecommend
p684
aVadvis
p685
aVplace
p686
aVarea
p687
aVlot
p688
asV2935856
p689
(lp690
Vchloe
p691
aVstay
p692
aVapart
p693
aVgreat
p694
aVchloe
p695
aVclean
p696
aVplace
p697
aVaccommod
p698
aVday
p699
ag145
aVchloe
p700
aVclose
p701
aVfine
p702
aVlife
p703
aVexcept
p704
asV8030646
p705
(lp706
Vbed
p707
aVarriv
p708
aVproblem
p709
aVnice
p710
aVlocat
p711
aVgraham
p712
aVgraham
p713
aVapart
p714
ag145
aVgraham
p715
aVgreat
p716
aVstay
p717
aVgraham
p718
aVlocat
p719
aVclean
p720
asV1301550
p721
(lp722
Vgreat
p723
aVvictor
p724
aVstay
p725
aVday
p726
aVreserv
p727
aVpost
p728
aVstay
p729
aVstartup
p730
aVgreat
p731
aVde
p732
aVvictor
p733
aVstartup
p734
aVgreat
p735
aVstay
p736
ag145
asV909052
p737
(lp738
Vscott
p739
aVplace
p740
ag145
aVscott
p741
aVlaw
p742
aVperfect
p743
aVgreat
p744
aVpark
p745
aVscott
p746
aVquiet
p747
aVscott
p748
aVstay
p749
aVapart
p750
asV7345018
p751
(lp752
Vnice
p753
aVgreat
p754
aVerik
p755
aVhous
p756
aVerik
p757
aVcan
p758
aVplace
p759
ag145
aVclean
p760
aVstay
p761
aVplace
p762
aVnice
p763
aVstay
p764
aVavail
p765
aVget
p766
asV349375
p767
(lp768
Vgreat
p769
aVeasi
p770
aVcomfort
p771
aVplace
p772
aVarea
p773
aVhome
p774
aVmuch
p775
aVstay
p776
aVjoanna
p777
aVjoanna
p778
aVhome
p779
ag145
aVsweet
p780
aVeasi
p781
aVapart
p782
asV4950264
p783
(lp784
g159
aVmolto
p785
aVil
p786
aVstay
p787
ag145
aVsan
p788
aVrecommend
p789
aVarea
p790
aVhost
p791
ag145
aVstay
p792
aVamaz
p793
aVday
p794
aVclean
p795
aVapart
p796
asV2512056
p797
(lp798
Vapart
p799
aVclean
p800
aVlocat
p801
aVlocat
p802
aVgreat
p803
aVsean
p804
aVplace
p805
aVgreat
p806
ag265
aVgreat
p807
aVstay
p808
aVplace
p809
aVlocat
p810
ag265
aVstay
p811
asV1912989
p812
(lp813
Vstay
p814
ag265
aVclean
p815
aVrecommend
p816
aVone
p817
aVairbnb
p818
aVloft
p819
aVlocat
p820
aVstay
p821
aVyanni
p822
aVgreat
p823
aVhost
p824
ag145
aVgreat
p825
ag265
asV6452714
p826
(lp827
Vplace
p828
aVeveryth
p829
aVnice
p830
aVget
p831
aVlocat
p832
aVstay
p833
aVday
p834
aVpost
p835
aVsam
p836
aVstay
p837
aVplace
p838
aVmiriam
p839
aVsam
p840
aVnice
p841
asV4183231
p842
(lp843
Vplace
p844
aVfutur
p845
aVamir
p846
aVlocat
p847
aVnice
p848
aVnear
p849
aVfutur
p850
aVarea
p851
aVrestaur
p852
aVdefinit
p853
aVplace
p854
aVamir
p855
aVdefinit
p856
aVbusiest
p857
aVclose
p858
asV30165
p859
(lp860
Vsuper
p861
aVder
p862
aVist
p863
aVneighborhood
p864
aVhost
p865
aVgreat
p866
aVesther
p867
aVnice
p868
aVstay
p869
aVet
p870
aVrecommend
p871
aVesther
p872
aVgreat
p873
aVstay
p874
asV5387890
p875
(lp876
Vgreat
p877
aVapart
p878
aVrealli
p879
aVhost
p880
aVstreet
p881
aVapart
p882
aVautom
p883
aVpost
p884
aVarriv
p885
aVreserv
p886
aVday
p887
aVcancel
p888
aVreserv
p889
aVcancel
p890
aVday
p891
asV8310729
p892
(lp893
Vgreat
p894
aVlocat
p895
aVcenter
p896
aVgreat
p897
ag145
aVdowntown
p898
aVcaelum
p899
ag145
aVgreat
p900
aVgreat
p901
aVplace
p902
aVclose
p903
aVgreat
p904
aVfillmor
p905
aVlocat
p906
asV4558566
p907
(lp908
Vomar
p909
aVeveryth
p910
aVstay
p911
aVhous
p912
aVgood
p913
aVpark
p914
aVwelcom
p915
aVplace
p916
aVfantast
p917
aVgreat
p918
aVomar
p919
aVhous
p920
aVgreat
p921
aVus
p922
aVgarag
p923
asV3748756
p924
(lp925
Vken
p926
ag145
aVplace
p927
aVken
p928
aVlocat
p929
aVgreat
p930
aVgreat
p931
aVapart
p932
aVken
p933
aVgreat
p934
aVken
p935
aVlocat
p936
aVken
p937
aVlocat
p938
aVstay
p939
asV8239944
p940
(lp941
Vhost
p942
aVreserv
p943
aVarriv
p944
aVitem
p945
aVgarbag
p946
aVprice
p947
aVhost
p948
aVautom
p949
aVpost
p950
aVhost
p951
aVday
p952
aVcancel
p953
aVhost
p954
aVautom
p955
aVreserv
p956
asV8033732
p957
(lp958
Vla
p959
ag454
aVel
p960
aVfelt
p961
aVbathroom
p962
aVplace
p963
aVbathroom
p964
aVplace
p965
aVspace
p966
aVund
p967
aVwar
p968
aVder
p969
aVbriyah
p970
aVnitzan
p971
aVgreat
p972
asV3780418
p973
(lp974
Vraveevarn
p975
aVstay
p976
aVgreat
p977
aVraveevarn
p978
aVstay
p979
aVgreat
p980
aVde
p981
aVla
p982
aVclean
p983
aVplace
p984
aVraveevarn
p985
aVstudio
p986
aVwill
p987
aVstay
p988
asV6146017
p989
(lp990
Vapart
p991
aVsan
p992
aVcheck
p993
aVtast
p994
aVbright
p995
aVnice
p996
ag145
aVstay
p997
aVchristin
p998
aVgood
p999
aVhidden
p1000
aVview
p1001
aVapart
p1002
aVbeauti
p1003
aVjust
p1004
asV918572
p1005
(lp1006
Vhous
p1007
aVstay
p1008
aVmarcella
p1009
aVhous
p1010
aVwithin
p1011
aVgarden
p1012
aVstay
p1013
aVgolden
p1014
aVroom
p1015
aVstay
p1016
aVfrancisco
p1017
aVsan
p1018
aVus
p1019
aVplace
p1020
aVthroughout
p1021
asV2236694
p1022
(lp1023
Vhost
p1024
aVjustin
p1025
aVstay
p1026
aVjustin
p1027
aValex
p1028
aVstay
p1029
aVjustin
p1030
aValex
p1031
aVrecommend
p1032
aValex
p1033
aVgreat
p1034
aVstay
p1035
aVstay
p1036
aValex
p1037
aVjustin
p1038
asV442881
p1039
(lp1040
g145
aVkiran
p1041
aVplace
p1042
aVkiran
p1043
ag145
aVeasi
p1044
aVkiran
p1045
aVgreat
p1046
aVlocat
p1047
aVkiran
p1048
aVgreat
p1049
aVclean
p1050
aVkiran
p1051
aVgreat
p1052
aVstay
p1053
asV2104978
p1054
(lp1055
Vtanya
p1056
aVstay
p1057
aVplace
p1058
aVtanya
p1059
aVhelp
p1060
aVeveryth
p1061
aVtanya
p1062
aVstay
p1063
aVgreat
p1064
ag145
aVsan
p1065
aVspace
p1066
aVstay
p1067
ag265
aVenjoy
p1068
asV1614353
p1069
(lp1070
Vlisa
p1071
aVstay
p1072
aVgreat
p1073
aVlisa
p1074
ag145
aVapart
p1075
ag145
aVlisa
p1076
aVeasi
p1077
aVlisa
p1078
aVstay
p1079
aVapart
p1080
aVlisa
p1081
aVapart
p1082
ag145
asV2904128
p1083
(lp1084
Vdafna
p1085
aVhome
p1086
aVabsolut
p1087
aVhous
p1088
aVdafna
p1089
aVgreat
p1090
aVbien
p1091
aVle
p1092
aVperfect
p1093
aVus
p1094
aVapart
p1095
aVgood
p1096
aVstay
p1097
aVhous
p1098
asV4880988
p1099
(lp1100
Vlive
p1101
aVhous
p1102
aVfour
p1103
aVaudrey
p1104
aVus
p1105
aVeasi
p1106
aVperfect
p1107
aVgreat
p1108
aVlocat
p1109
aVtime
p1110
aVapart
p1111
aVwelcom
p1112
aVbeauti
p1113
aVhelp
p1114
aVprior
p1115
asV470686
p1116
(lp1117
Vlive
p1118
aVhao
p1119
aVrestaur
p1120
aVhao
p1121
aVstay
p1122
aVclean
p1123
aVde
p1124
aVhao
p1125
aVla
p1126
aVhao
p1127
aVgreat
p1128
aVstay
p1129
aVhao
p1130
aVstay
p1131
aVhost
p1132
asV6819512
p1133
(lp1134
Vmade
p1135
aVhous
p1136
aVclean
p1137
aVhous
p1138
aVnice
p1139
aVscenic
p1140
aVroom
p1141
aVnight
p1142
aVhous
p1143
aVnice
p1144
aVcoupl
p1145
aVla
p1146
aVel
p1147
ag454
asV3505440
p1148
(lp1149
Vaudrey
p1150
ag145
aVgreat
p1151
aVstay
p1152
aVpark
p1153
aVgreat
p1154
aVapart
p1155
aVplace
p1156
aVget
p1157
aVarriv
p1158
aVday
p1159
aVreserv
p1160
aVplace
p1161
aVgreat
p1162
aVaudrey
p1163
asV6260599
p1164
(lp1165
Vhost
p1166
aVhous
p1167
aVgreat
p1168
aVgreat
p1169
aVbeauti
p1170
aVhost
p1171
aVhous
p1172
aVnice
p1173
aVhost
p1174
aVen
p1175
ag454
aVsu
p1176
aVhost
p1177
aVhous
p1178
aVgreat
p1179
asV7788309
p1180
(lp1181
Vgreat
p1182
aVhost
p1183
aVhelp
p1184
aVexactli
p1185
aVlocat
p1186
aVpatent
p1187
aVexactli
p1188
aVus
p1189
aVsoo
p1190
aVexactli
p1191
aVpatent
p1192
aVtroubl
p1193
aVexactli
p1194
aVus
p1195
aVtroubl
p1196
asV424082
p1197
(lp1198
Vheather
p1199
ag145
aVpark
p1200
aVheather
p1201
ag145
aVstay
p1202
aVplace
p1203
aVheather
p1204
aVgreat
p1205
aVstay
p1206
aVlocat
p1207
aVheather
p1208
aVstay
p1209
aVde
p1210
aVheather
p1211
asV7281127
p1212
(lp1213
Vhost
p1214
aVrealli
p1215
aVnice
p1216
aVgreat
p1217
aVroom
p1218
aVwhenev
p1219
aVhost
p1220
aVkind
p1221
aVhous
p1222
aVnice
p1223
aVview
p1224
aVplace
p1225
aVhost
p1226
aVrealli
p1227
aVnice
p1228
asV708731
p1229
(lp1230
Vgreat
p1231
aVroom
p1232
aVkaren
p1233
aVla
p1234
aVmuy
p1235
ag454
aVstay
p1236
aVgreat
p1237
aVkaren
p1238
aVkaren
p1239
aVrodolfo
p1240
aVus
p1241
aVkaren
p1242
aVplace
p1243
aVhost
p1244
asV5005692
p1245
(lp1246
Vhost
p1247
aVanyth
p1248
aVpost
p1249
aVneed
p1250
aVroom
p1251
aVlocat
p1252
aVcome
p1253
aVfront
p1254
aVproperti
p1255
aVyumi
p1256
aVlocat
p1257
aVneed
p1258
aVlocat
p1259
aVyumi
p1260
asV7921921
p1261
(lp1262
Vgood
p1263
aVcondit
p1264
aValso
p1265
aVgood
p1266
aVcondit
p1267
aVnew
p1268
aVplace
p1269
aVgood
p1270
aVnice
p1271
aVgari
p1272
aVstay
p1273
aVgreat
p1274
aVgood
p1275
aVcondit
p1276
aValso
p1277
asV8461506
p1278
(lp1279
Vstay
p1280
aVhost
p1281
aVbar
p1282
aVlocat
p1283
aVlot
p1284
aVhear
p1285
aVbar
p1286
aVhear
p1287
aVlocat
p1288
aVthrow
p1289
aVrestaur
p1290
aVlot
p1291
aVhost
p1292
aVstay
p1293
aVparti
p1294
asV6628140
p1295
(lp1296
g145
aVclean
p1297
aVplace
p1298
aVclean
p1299
aVgood
p1300
aVinsid
p1301
aVclean
p1302
aVowner
p1303
aVbuild
p1304
aVroom
p1305
aVcomfort
p1306
aVfriendli
p1307
aVclean
p1308
aVgood
p1309
aVbuild
p1310
asV7273579
p1311
(lp1312
Vgreat
p1313
aVsuper
p1314
aVfriendli
p1315
aVexperi
p1316
aVother
p1317
aVenviron
p1318
aVexperi
p1319
aVbelong
p1320
aVspace
p1321
aVeveryon
p1322
aVstartup
p1323
aVlot
p1324
aVfirst
p1325
aVenviron
p1326
aVtime
p1327
asV252867
p1328
(lp1329
Vchristma
p1330
aVlove
p1331
aVrecommend
p1332
aVstay
p1333
aVplace
p1334
aVenjoy
p1335
aVstay
p1336
aVsusi
p1337
aVus
p1338
aVsusi
p1339
aVmatt
p1340
aVgreat
p1341
aVnice
p1342
aVhous
p1343
aVbu
p1344
asV1256855
p1345
(lp1346
Vshaan
p1347
aVgreat
p1348
aVapart
p1349
aVdescrib
p1350
aVarriv
p1351
aVperfect
p1352
aVapart
p1353
aVshaan
p1354
aVgreat
p1355
aVstay
p1356
aVgreat
p1357
aVapart
p1358
aVstay
p1359
aVshaan
p1360
aVrealli
p1361
asV7957587
p1362
(lp1363
Vwill
p1364
aVapart
p1365
aVday
p1366
aVwill
p1367
aVapart
p1368
aVday
p1369
aVwill
p1370
aVapart
p1371
aVday
p1372
aVwill
p1373
aVapart
p1374
aVus
p1375
aVwill
p1376
aVapart
p1377
aVarea
p1378
asV3643650
p1379
(lp1380
Valso
p1381
aVstay
p1382
ag145
aVgreat
p1383
ag145
aVsafe
p1384
ag145
aVwell
p1385
aVapart
p1386
aValso
p1387
ag145
aVstay
p1388
aVarea
p1389
aVapart
p1390
aVcomfort
p1391
asV4029948
p1392
(lp1393
Vpictur
p1394
aVroommat
p1395
aVclean
p1396
aVfeel
p1397
aVcosi
p1398
aVincred
p1399
aVdarien
p1400
aVhome
p1401
aVcosi
p1402
aVfeel
p1403
aVright
p1404
aVstylish
p1405
aVright
p1406
aVfeel
p1407
aVdarien
p1408
asV7652219
p1409
(lp1410
Vhost
p1411
aVwill
p1412
aVperfect
p1413
aVgreat
p1414
aVplace
p1415
aVwill
p1416
aVneed
p1417
aVhost
p1418
aVmadelin
p1419
aVlove
p1420
aVprovid
p1421
aVroom
p1422
asV2188453
p1423
(lp1424
Vgreat
p1425
aVabraham
p1426
aVlocat
p1427
ag145
aVaway
p1428
aVlocat
p1429
aVflat
p1430
aVhost
p1431
aVplace
p1432
aVstay
p1433
aVgood
p1434
aVplace
p1435
aVget
p1436
aVgreat
p1437
asV2124182
p1438
(lp1439
Vstay
p1440
aVeduardo
p1441
aVgreat
p1442
aVgreat
p1443
aVeduardo
p1444
aVstay
p1445
aVwonder
p1446
aVlocat
p1447
aVgreat
p1448
aVeduardo
p1449
aVcottag
p1450
aVla
p1451
aVstay
p1452
aVsan
p1453
aVavail
p1454
asV6757412
p1455
(lp1456
Vrealli
p1457
aVstay
p1458
aVplace
p1459
aVlocat
p1460
aVperfect
p1461
aVwalk
p1462
aVperfect
p1463
aVwalk
p1464
aVlocat
p1465
aVperfect
p1466
aVlocat
p1467
aVwalk
p1468
aVperfect
p1469
aVstay
p1470
aVlocat
p1471
asV5345792
p1472
(lp1473
Vog
p1474
aVvar
p1475
aVer
p1476
aVapart
p1477
aVgreat
p1478
aVleo
p1479
aVplace
p1480
aVleo
p1481
aVstay
p1482
aVleo
p1483
aVdaniel
p1484
aVapart
p1485
aVda
p1486
aVder
p1487
aVdie
p1488
asV6272183
p1489
(lp1490
Vwell
p1491
aVdefinit
p1492
aVwill
p1493
aVquiet
p1494
aVstudio
p1495
aVstay
p1496
aVapart
p1497
aVwalk
p1498
aVenjoy
p1499
ag145
aVgreat
p1500
aVneighborhood
p1501
aVplace
p1502
aVbed
p1503
aVgood
p1504
asV1106534
p1505
(lp1506
Vspace
p1507
aVneighborhood
p1508
aVget
p1509
aVrachel
p1510
aVspace
p1511
ag145
aVrachel
p1512
aVcottag
p1513
aVstay
p1514
aVrachel
p1515
ag145
aVstay
p1516
aVrachel
p1517
aVsan
p1518
aVfrancisco
p1519
asV187730
p1520
(lp1521
Vjessica
p1522
aVnice
p1523
aVplace
p1524
aVplace
p1525
aVstay
p1526
aVjessica
p1527
aVroom
p1528
aVgreat
p1529
aVhost
p1530
aVstay
p1531
aVjessica
p1532
aVroom
p1533
aVjessica
p1534
aVhome
p1535
aVcool
p1536
asV1990396
p1537
(lp1538
Vstay
p1539
aVapart
p1540
aVgreat
p1541
aVog
p1542
aVvar
p1543
aVtil
p1544
aVunit
p1545
aVgreat
p1546
aVhost
p1547
aVgreat
p1548
aVview
p1549
aVstay
p1550
aVvisit
p1551
aVplace
p1552
aVneighborhood
p1553
asV81256
p1554
(lp1555
Vhous
p1556
aVstay
p1557
aVmaria
p1558
aVstay
p1559
aVplace
p1560
aVroom
p1561
aVgreat
p1562
aVmaria
p1563
aVwell
p1564
aVroom
p1565
aVplace
p1566
ag265
aVhous
p1567
aVroom
p1568
aVminut
p1569
asV8276064
p1570
(lp1571
Vclear
p1572
aVinstruct
p1573
aVtoiletri
p1574
aVnice
p1575
aVinstruct
p1576
aVclear
p1577
aVnice
p1578
aVinstruct
p1579
aVclean
p1580
aVeven
p1581
aVbrochur
p1582
aVclear
p1583
aVstay
p1584
aVtravel
p1585
aVleft
p1586
asV6813442
p1587
(lp1588
Vrecommend
p1589
aVanyon
p1590
aVstay
p1591
aVtotal
p1592
aVbed
p1593
aVpicturesqu
p1594
aVrecommend
p1595
aVvisit
p1596
aVawesom
p1597
aVsasha
p1598
aVget
p1599
aVflat
p1600
aVfrancisco
p1601
aVrecommend
p1602
aVanyon
p1603
asV1913912
p1604
(lp1605
Vbrent
p1606
aVzentrum
p1607
aVetwa
p1608
aVist
p1609
aVwohnung
p1610
aVnicht
p1611
aVus
p1612
aVbrent
p1613
aVwell
p1614
aVbrent
p1615
aVgastgeb
p1616
aVbusfahrt
p1617
aVus
p1618
aVbrent
p1619
aVmade
p1620
asV237541
p1621
(lp1622
Vgreat
p1623
aVroom
p1624
aVowner
p1625
aVnice
p1626
aValso
p1627
aVstreet
p1628
aVroom
p1629
aVlocat
p1630
ag265
aVstay
p1631
aVclean
p1632
aVroom
p1633
aVgood
p1634
aVbathroom
p1635
aVtowel
p1636
asV232060
p1637
(lp1638
Vplace
p1639
aVstay
p1640
aVsylvia
p1641
aVart
p1642
aVsyl
p1643
aVgreat
p1644
aVus
p1645
aVart
p1646
aVstay
p1647
aVart
p1648
aVsyl
p1649
aVsuit
p1650
aVsylvia
p1651
aVstay
p1652
aVart
p1653
asV4469429
p1654
(lp1655
Vstay
p1656
aVrestaur
p1657
aVneal
p1658
aVstay
p1659
aVrestaur
p1660
aVneal
p1661
aVcondo
p1662
aVlocat
p1663
aVwalk
p1664
aVnice
p1665
aVapart
p1666
aVneal
p1667
aVsf
p1668
aVapart
p1669
aVstay
p1670
asV8686522
p1671
(lp1672
Vcafe
p1673
aVcomfort
p1674
aValso
p1675
aVplenti
p1676
aVrecommend
p1677
aVcomfort
p1678
aVgreat
p1679
aVjeremi
p1680
aVshop
p1681
aVcafe
p1682
aVcomfort
p1683
aVwrong
p1684
aVplenti
p1685
aVspotless
p1686
aVwrong
p1687
asV911156
p1688
(lp1689
Vapart
p1690
aVmichael
p1691
aVparent
p1692
aVgreat
p1693
aVrestaur
p1694
aVplace
p1695
aVmichael
p1696
aVlocat
p1697
aVclean
p1698
aVclean
p1699
aVgreat
p1700
aVapart
p1701
aVnice
p1702
aVbuild
p1703
aVapart
p1704
asV232492
p1705
(lp1706
Vgreat
p1707
aVplace
p1708
aVwilliam
p1709
aVamaz
p1710
aVhost
p1711
aVplace
p1712
aVbill
p1713
aVgreat
p1714
aVplace
p1715
aVbill
p1716
aVgreat
p1717
aVapart
p1718
aVstay
p1719
aVplace
p1720
aVgreat
p1721
asV6936417
p1722
(lp1723
Vmisha
p1724
aVclean
p1725
aVquiet
p1726
aVmisha
p1727
aVquiet
p1728
aVclean
p1729
aVneighborhood
p1730
aVhous
p1731
aVhome
p1732
aVus
p1733
aVhous
p1734
aVmay
p1735
aVneighborhood
p1736
aVproperti
p1737
aVhost
p1738
asV7227980
p1739
(lp1740
Vplace
p1741
aVguy
p1742
aVhous
p1743
aVroom
p1744
aVuse
p1745
aVbathroom
p1746
aVguy
p1747
aVgreat
p1748
aVstay
p1749
aVguy
p1750
aVroom
p1751
aVlove
p1752
aVuse
p1753
aVtime
p1754
aVhome
p1755
asV6610089
p1756
(lp1757
Vgreat
p1758
aVchri
p1759
aVplace
p1760
aVstay
p1761
aVmuy
p1762
aVel
p1763
aVperfect
p1764
aVpark
p1765
aVapart
p1766
aVstreet
p1767
aVgreat
p1768
aVstay
p1769
aVlocat
p1770
asV7229446
p1771
(lp1772
Vlocat
p1773
aVsf
p1774
aVstay
p1775
aVus
p1776
aVcarlo
p1777
aVapart
p1778
aVplace
p1779
aVlocat
p1780
aVgreat
p1781
aVapart
p1782
aValso
p1783
aVclean
p1784
aVlocat
p1785
aVsf
p1786
aVapart
p1787
asV7217193
p1788
(lp1789
Vspaciou
p1790
ag145
ag265
aVplace
p1791
aVfantast
p1792
aVgreat
p1793
aVgreat
p1794
aVstay
p1795
aVapart
p1796
aVgreat
p1797
aVspot
p1798
aVnice
p1799
aVlocat
p1800
aVstay
p1801
aVgreat
p1802
asV6199764
p1803
(lp1804
Vmarina
p1805
aVstay
p1806
aVclean
p1807
aVrespons
p1808
aVfantast
p1809
aVrental
p1810
aVgreat
p1811
aVtwo
p1812
aVapart
p1813
aVwindow
p1814
aVfrancisco
p1815
aVsan
p1816
aVnice
p1817
aVrespons
p1818
aVlove
p1819
asV4157192
p1820
(lp1821
g145
aVnice
p1822
aVpictur
p1823
aVgreat
p1824
aVview
p1825
aVcommut
p1826
aVmichael
p1827
aVrecommend
p1828
aVfriendli
p1829
aVmichael
p1830
aVhelp
p1831
aVneed
p1832
aVmichael
p1833
aVstay
p1834
aVapart
p1835
asV3968551
p1836
(lp1837
Vnatali
p1838
aVeven
p1839
aVstay
p1840
aVstay
p1841
aVnatali
p1842
aVgarrison
p1843
aVcoffe
p1844
aVbeauti
p1845
aVnatali
p1846
aVstay
p1847
aVnatali
p1848
aVus
p1849
aVstay
p1850
aVnatali
p1851
aVus
p1852
asV5355114
p1853
(lp1854
Vone
p1855
aVbedroom
p1856
aVcan
p1857
aVone
p1858
aVflat
p1859
aVbedroom
p1860
aVone
p1861
aVbedroom
p1862
aVflat
p1863
aVone
p1864
aVbedroom
p1865
aVflat
p1866
aVbedroom
p1867
aVone
p1868
aVcan
p1869
asV8521003
p1870
(lp1871
Vplace
p1872
aVjust
p1873
aVeasi
p1874
aVeasi
p1875
aVstay
p1876
aVjust
p1877
aVhot
p1878
aVnice
p1879
aVpark
p1880
aVplace
p1881
aVstay
p1882
aVeasi
p1883
aVapart
p1884
aVcheck
p1885
aVsay
p1886
asV8144115
p1887
(lp1888
Vgreat
p1889
aVhost
p1890
aVbook
p1891
aValex
p1892
aVclear
p1893
aVbeauti
p1894
aVrespons
p1895
aVwork
p1896
aVback
p1897
aVhost
p1898
aVback
p1899
aVgreat
p1900
aVhost
p1901
aVprovid
p1902
aVcertainli
p1903
asV292723
p1904
(lp1905
Vroom
p1906
ag265
aVjust
p1907
aVnice
p1908
aVplace
p1909
aVmaria
p1910
aVroom
p1911
aVplace
p1912
aVstay
p1913
aVhous
p1914
aVgood
p1915
ag145
aVneighborhood
p1916
aVget
p1917
aVmaria
p1918
asV1836986
p1919
(lp1920
Vshop
p1921
ag145
aVstay
p1922
aVstay
p1923
aVapart
p1924
aVquiet
p1925
aVdon
p1926
aVneighborhood
p1927
ag145
aVdon
p1928
aVstreet
p1929
ag145
aVshop
p1930
aVstay
p1931
ag145
asV7950588
p1932
(lp1933
Vawesom
p1934
aVplace
p1935
aVspaciou
p1936
aVsincer
p1937
aVprice
p1938
aVfriend
p1939
aVlove
p1940
aVjust
p1941
aVdownhil
p1942
aVjust
p1943
aVblk
p1944
aVexperi
p1945
aVgreat
p1946
aVfillmor
p1947
aVsincer
p1948
asV7764070
p1949
(lp1950
Vhost
p1951
aVback
p1952
aVdefinit
p1953
aVplace
p1954
aVgreat
p1955
aVneed
p1956
aVgreat
p1957
aVgeorg
p1958
aVaccommod
p1959
aVnice
p1960
aVstay
p1961
aVbed
p1962
aVgeorg
p1963
aVback
p1964
aVwill
p1965
asV8417986
p1966
(lp1967
Vgreat
p1968
aVspot
p1969
aVeasi
p1970
aVmari
p1971
aVstay
p1972
aVlove
p1973
aVmari
p1974
aVstay
p1975
aVlove
p1976
aVstay
p1977
aVclean
p1978
aVride
p1979
aVmari
p1980
aVtime
p1981
aVspace
p1982
asV3467259
p1983
(lp1984
Vroom
p1985
aVclean
p1986
aVlittl
p1987
aVautom
p1988
aVcancel
p1989
aVpost
p1990
aVcancel
p1991
aVday
p1992
aVautom
p1993
aVadriana
p1994
aVeven
p1995
aVwell
p1996
aVprivat
p1997
aVroom
p1998
ag145
asV837490
p1999
(lp2000
Venjoy
p2001
aVrestaur
p2002
aVplace
p2003
aVenjoy
p2004
aVlocat
p2005
aVangela
p2006
aVangela
p2007
aVapart
p2008
aVlocat
p2009
aVnearbi
p2010
aVangela
p2011
aVrealli
p2012
aVenjoy
p2013
aVlocat
p2014
aVangela
p2015
asV3917296
p2016
(lp2017
Vpromot
p2018
aVuber
p2019
aVfind
p2020
aVstay
p2021
aVclean
p2022
aVday
p2023
aVhost
p2024
aVone
p2025
aVbest
p2026
aVday
p2027
aVclean
p2028
aVstay
p2029
aVhous
p2030
aVstay
p2031
aVprofession
p2032
asV7807992
p2033
(lp2034
Vmeghna
p2035
aVus
p2036
ag145
aVnice
p2037
aVhous
p2038
aVfamili
p2039
aVstay
p2040
aVhous
p2041
aVus
p2042
aVstay
p2043
aVfamili
p2044
aVgreat
p2045
aValso
p2046
aVgreat
p2047
aVview
p2048
asV7086626
p2049
(lp2050
Vdefinit
p2051
aVblock
p2052
aVaway
p2053
aVdefinit
p2054
aVaway
p2055
aVblock
p2056
aVdefinit
p2057
aVnice
p2058
aVconstruct
p2059
aVisaac
p2060
aVpark
p2061
aVminut
p2062
aVdefinit
p2063
aVaway
p2064
aVblock
p2065
asV17330
p2066
(lp2067
Vtanya
p2068
aVapart
p2069
aVgreat
p2070
aVet
p2071
aVla
p2072
aVde
p2073
aVtanya
p2074
aVplace
p2075
aVstay
p2076
aVnou
p2077
aVde
p2078
aVdie
p2079
aVund
p2080
aVwohnung
p2081
asV4987913
p2082
(lp2083
Vhay
p2084
aVve
p2085
aVstreet
p2086
aVdoor
p2087
aVhost
p2088
aVone
p2089
aVplace
p2090
aVgreat
p2091
aVstay
p2092
aVgreat
p2093
aVapart
p2094
aVlocat
p2095
aVjust
p2096
aVlocat
p2097
aVexcel
p2098
asV6785012
p2099
(lp2100
Vsteven
p2101
aVhost
p2102
aVstay
p2103
aVsteven
p2104
aVplace
p2105
aVgreat
p2106
aVroom
p2107
aVclean
p2108
aVwhole
p2109
aVarriv
p2110
aVpost
p2111
aVday
p2112
aVhost
p2113
aVwill
p2114
aVsuper
p2115
asV3157541
p2116
(lp2117
Vmishi
p2118
aVplace
p2119
aVgreat
p2120
aVmishi
p2121
aVplace
p2122
aVstay
p2123
aVhome
p2124
aVmishi
p2125
aVdefinit
p2126
aVmishi
p2127
aVstay
p2128
aVlocat
p2129
aVmishi
p2130
aVplace
p2131
aVstay
p2132
asV1144148
p2133
(lp2134
Vbryan
p2135
aVgreat
p2136
aVthank
p2137
aVstay
p2138
ag145
aVbryan
p2139
aVbryan
p2140
aVl
p2141
aVplace
p2142
aVbryan
p2143
aVbeauti
p2144
aVgreat
p2145
aVplace
p2146
aVclean
p2147
asV8408663
p2148
(lp2149
Vbit
p2150
aVstrang
p2151
aVcomfort
p2152
aVclean
p2153
aVroomi
p2154
aVmeet
p2155
ag145
aVplace
p2156
aVus
p2157
aVclean
p2158
aVroomi
p2159
aVmeet
p2160
aVclean
p2161
aVroomi
p2162
aVbook
p2163
asV3728917
p2164
(lp2165
Vneighborhood
p2166
aVrealli
p2167
aVdescrib
p2168
aVlove
p2169
aVdescrib
p2170
aVneighborhood
p2171
aVneighborhood
p2172
aVdefinit
p2173
aVd
p2174
ag2174
aVrealli
p2175
aVneighborhood
p2176
aVstay
p2177
aVapart
p2178
ag145
asV8775
p2179
(lp2180
Vstay
p2181
aVkid
p2182
aVplace
p2183
aVdistrict
p2184
aVheartbeat
p2185
aVde
p2186
aVle
p2187
aVet
p2188
aVgreat
p2189
aVapart
p2190
aVmatt
p2191
aVplace
p2192
aVmatt
p2193
aVgreat
p2194
asV7402986
p2195
(lp2196
Vneighborhood
p2197
aVbeauti
p2198
aVhomey
p2199
aVneighborhood
p2200
aVsolid
p2201
aVsuper
p2202
aVneighborhood
p2203
aVsuper
p2204
aVhomey
p2205
aVassist
p2206
aVcheck
p2207
aVprovid
p2208
aVgood
p2209
aVday
p2210
aVarea
p2211
asV7204414
p2212
(lp2213
Vquestion
p2214
aVclean
p2215
aVview
p2216
aVclean
p2217
aVquestion
p2218
aVview
p2219
aVclean
p2220
aVview
p2221
aVquestion
p2222
aVplace
p2223
aVhost
p2224
aVryan
p2225
aVapart
p2226
aVquestion
p2227
aVview
p2228
asV4728615
p2229
(lp2230
Vroom
p2231
aVstay
p2232
aVlocat
p2233
aVroom
p2234
aVgood
p2235
aVbathroom
p2236
aVplace
p2237
aVgreat
p2238
aVstay
p2239
aVel
p2240
aVla
p2241
aVde
p2242
aVle
p2243
aVde
p2244
asV2948159
p2245
(lp2246
Vpark
p2247
aVcar
p2248
aVget
p2249
aVgreat
p2250
aVapart
p2251
aVstefan
p2252
aVus
p2253
aVsf
p2254
aVstay
p2255
aVlocat
p2256
aVrealli
p2257
aVamaz
p2258
aVstefan
p2259
ag145
aVcan
p2260
asV7111375
p2261
(lp2262
Vfantast
p2263
aVdefinit
p2264
aVstay
p2265
aVpeter
p2266
ag145
aVfantast
p2267
aVdefinit
p2268
aVstay
p2269
aVclose
p2270
aVpeter
p2271
aVplace
p2272
aVfantast
p2273
aVdefinit
p2274
aVstay
p2275
asV1130812
p2276
(lp2277
Vscott
p2278
aVstay
p2279
aVgreat
p2280
aVscott
p2281
aVstay
p2282
ag145
aVscott
p2283
aVet
p2284
aVstay
p2285
aVfriendli
p2286
aVcool
p2287
aVbetter
p2288
aVscott
p2289
aVus
p2290
aVhost
p2291
asV2515611
p2292
(lp2293
Vcottag
p2294
ag145
aVstay
p2295
aVcottag
p2296
ag145
aVinform
p2297
aVcottag
p2298
aVhendrik
p2299
aVstay
p2300
aVcottag
p2301
aVplace
p2302
aVstay
p2303
aVplace
p2304
ag265
aVhendrik
p2305
asV7784030
p2306
(lp2307
Vday
p2308
aVreserv
p2309
aVarriv
p2310
aVhost
p2311
aVpost
p2312
aVcancel
p2313
aVpost
p2314
aVautom
p2315
aVcancel
p2316
aVcancel
p2317
aVhost
p2318
aVhost
p2319
aVcancel
p2320
asV1665516
p2321
(lp2322
Vgreat
p2323
aVadam
p2324
aVstay
p2325
aVstay
p2326
aVadam
p2327
aVapart
p2328
aVstay
p2329
aVrupert
p2330
aVadam
p2331
aVstay
p2332
aVadam
p2333
aVgreat
p2334
aVapart
p2335
aVstay
p2336
aVlocat
p2337
asV271434
p2338
(lp2339
Vhelp
p2340
aVapart
p2341
aVoveral
p2342
aVoveral
p2343
aVgreat
p2344
aVvera
p2345
aVhelp
p2346
aVoveral
p2347
aVvera
p2348
aVsf
p2349
aVstay
p2350
aVseem
p2351
aVhelp
p2352
aVgreat
p2353
aVvera
p2354
asV4949779
p2355
(lp2356
Vexperi
p2357
aVroom
p2358
aVmaryam
p2359
aVstay
p2360
aVambrish
p2361
aVmaryam
p2362
aVund
p2363
aVdie
p2364
aVist
p2365
aVus
p2366
ag159
aVdi
p2367
aVrecommend
p2368
aVhost
p2369
aVanyon
p2370
asV4596210
p2371
(lp2372
Vapart
p2373
aVnick
p2374
aVstay
p2375
aVgorgeou
p2376
aVexperi
p2377
aVdefinit
p2378
aVapart
p2379
aVnick
p2380
aVanyon
p2381
aVwonder
p2382
aVbreakfast
p2383
aVtram
p2384
aVapart
p2385
aVnick
p2386
aVstay
p2387
asV1678077
p2388
(lp2389
Vroom
p2390
aVgreat
p2391
aVhome
p2392
aVgreat
p2393
aVhous
p2394
aVbeauti
p2395
aVstay
p2396
aVgreat
p2397
aVroom
p2398
aVla
p2399
aVet
p2400
aVde
p2401
asV1356817
p2402
(lp2403
Valex
p2404
aVstay
p2405
aVhost
p2406
aValex
p2407
aVplace
p2408
aVgreat
p2409
aValex
p2410
aVplace
p2411
aVgreat
p2412
aVgreat
p2413
aValex
p2414
aVhost
p2415
aVde
p2416
aVmai
p2417
asV7842771
p2418
(lp2419
Vholli
p2420
aVplace
p2421
aVmani
p2422
aVplace
p2423
aVholli
p2424
aVpeopl
p2425
aVdefinit
p2426
aVcafe
p2427
aVconveni
p2428
aVinvit
p2429
aVenjoy
p2430
aVus
p2431
aVplace
p2432
aVholli
p2433
aVmani
p2434
asV1767543
p2435
(lp2436
Vneed
p2437
aVarriv
p2438
aVruss
p2439
aVapart
p2440
aVnight
p2441
aVeveryth
p2442
aVruss
p2443
aVgreat
p2444
aVstay
p2445
aVcottag
p2446
aVroom
p2447
aVplace
p2448
aVde
p2449
aVet
p2450
asV3026887
p2451
(lp2452
Vgreat
p2453
aVstay
p2454
aVsf
p2455
aVcommun
p2456
aVhous
p2457
aVway
p2458
aVgreat
p2459
aVpeopl
p2460
aVexperi
p2461
aVgreat
p2462
aVpeopl
p2463
aVappart
p2464
aVpeopl
p2465
aVhous
p2466
aVway
p2467
asV4216437
p2468
(lp2469
Vlike
p2470
ag145
aVapart
p2471
aVgreat
p2472
aVjen
p2473
aVperfect
p2474
aVjen
p2475
aVclean
p2476
aVplace
p2477
aVjen
p2478
aVgreat
p2479
aVapart
p2480
aVjen
p2481
aVapart
p2482
aVus
p2483
asV5861106
p2484
(lp2485
Vclean
p2486
aVcourteou
p2487
aVarriv
p2488
aVmatt
p2489
aVsehr
p2490
aVund
p2491
aVapart
p2492
aVgreat
p2493
aVeasi
p2494
aVbest
p2495
aVhost
p2496
aVfrancisco
p2497
aVde
p2498
aVet
p2499
asV2695774
p2500
(lp2501
Vnatali
p2502
aVapart
p2503
aVdi
p2504
aVde
p2505
aVnou
p2506
aVle
p2507
aVgreat
p2508
aVnatali
p2509
aVplace
p2510
aVgreat
p2511
aVnatali
p2512
aVstay
p2513
ag145
aVblock
p2514
aVnatali
p2515
asV8328969
p2516
(lp2517
Vbottl
p2518
aVthank
p2519
aVwelcom
p2520
aVwelcom
p2521
aVfeel
p2522
aVthank
p2523
aVnice
p2524
aVplace
p2525
aVus
p2526
aVthank
p2527
aVfavorit
p2528
aVbottl
p2529
aVnice
p2530
aVwelcom
p2531
aVwalk
p2532
asV1530745
p2533
(lp2534
Vgreat
p2535
aVperfect
p2536
aVlocat
p2537
aVkathi
p2538
aVgreat
p2539
aVstay
p2540
aVkathi
p2541
ag145
aVhome
p2542
aVkathi
p2543
aVus
p2544
aVstay
p2545
aVlove
p2546
aVwonder
p2547
aVback
p2548
asV1100287
p2549
(lp2550
Vstay
p2551
aVken
p2552
aVroom
p2553
aVgolden
p2554
aVstay
p2555
aVaccommod
p2556
aVus
p2557
aVle
p2558
aVday
p2559
aVgreat
p2560
aVken
p2561
aVdayna
p2562
aVken
p2563
aVdayna
p2564
aVstay
p2565
asV2496471
p2566
(lp2567
Vchri
p2568
aVstay
p2569
aVapart
p2570
aVapart
p2571
aVchri
p2572
aVlocat
p2573
aVapart
p2574
aVchri
p2575
aVest
p2576
aVeasi
p2577
aVapart
p2578
aVchri
p2579
aVchri
p2580
aVstay
p2581
aVplace
p2582
asV1259727
p2583
(lp2584
Vspaciou
p2585
aVeven
p2586
aVwent
p2587
aVwent
p2588
aVspaciou
p2589
aVeven
p2590
aVeran
p2591
aVenjoy
p2592
aVnice
p2593
aVwent
p2594
aVeven
p2595
aVspaciou
p2596
ag145
aVhous
p2597
aVeveryth
p2598
asV4022990
p2599
(lp2600
Veen
p2601
aVde
p2602
ag454
aVroom
p2603
aVgreat
p2604
aVclean
p2605
aVlocat
p2606
aVstay
p2607
aVclean
p2608
aVstay
p2609
aVplace
p2610
aVgreat
p2611
aVgreat
p2612
aVpark
p2613
aVrealli
p2614
asV7055126
p2615
(lp2616
Vplace
p2617
aVus
p2618
aVstay
p2619
aVstay
p2620
aVrealli
p2621
aVcottag
p2622
aVhome
p2623
aVwell
p2624
aVlocat
p2625
aVed
p2626
aVcottag
p2627
ag145
aVed
p2628
ag145
aVgreat
p2629
asV476239
p2630
(lp2631
Vdie
p2632
aVwir
p2633
ag454
aVde
p2634
aVle
p2635
aVstay
p2636
aVfrank
p2637
aVlove
p2638
aVfrank
p2639
aVstay
p2640
aVapart
p2641
aVstay
p2642
aVfrank
p2643
aVplace
p2644
asV3534798
p2645
(lp2646
Vtowel
p2647
aVclean
p2648
aVapart
p2649
aVgreat
p2650
aVapart
p2651
ag265
aVgreat
p2652
aVapart
p2653
aVstay
p2654
aVclean
p2655
ag265
aVwork
p2656
ag145
aVlocat
p2657
aVinsid
p2658
asV4477314
p2659
(lp2660
Vhous
p2661
aVone
p2662
aVnight
p2663
aVstay
p2664
aVhome
p2665
aVtobi
p2666
aVlove
p2667
aVlocat
p2668
aVgreat
p2669
aVest
p2670
ag145
aVbien
p2671
aValso
p2672
aVtobi
p2673
ag145
asV105802
p2674
(lp2675
Vryan
p2676
aVperfect
p2677
aVgreat
p2678
aVhost
p2679
aVryan
p2680
ag145
aVarea
p2681
aVlocat
p2682
aVhelp
p2683
aVapart
p2684
aVgreat
p2685
aVplace
p2686
aVciti
p2687
asV7365694
p2688
(lp2689
Vrecommend
p2690
aVhome
p2691
aVclean
p2692
aVincred
p2693
aVtransport
p2694
aVplace
p2695
aVimmens
p2696
aVbeauti
p2697
aVcool
p2698
aVplace
p2699
aVbeauti
p2700
aVwelcom
p2701
aVclose
p2702
aVwalk
p2703
aVrealli
p2704
asV7516626
p2705
(lp2706
Vgreat
p2707
aVwelcom
p2708
aVrealli
p2709
aValbara
p2710
aVplace
p2711
aVstay
p2712
aVhost
p2713
aVexperi
p2714
aVbeyond
p2715
aVnice
p2716
aVbook
p2717
aVback
p2718
aValbara
p2719
aVgreat
p2720
aVexperi
p2721
asV24535
p2722
(lp2723
Vmia
p2724
aVstay
p2725
aVgreat
p2726
aVde
p2727
aVet
p2728
aVle
p2729
aVapart
p2730
aVmia
p2731
aVclean
p2732
aVgarden
p2733
aVlove
p2734
aVclose
p2735
aVmia
p2736
aVstay
p2737
aVplace
p2738
asV3114518
p2739
(lp2740
Vrecommend
p2741
aVgreat
p2742
aVheart
p2743
aVapart
p2744
aVperfect
p2745
aVhighli
p2746
aVgina
p2747
aVjona
p2748
aVcheck
p2749
aVgreat
p2750
aVavail
p2751
aVlove
p2752
aVgreat
p2753
aVapart
p2754
aVavail
p2755
asV6007034
p2756
(lp2757
Vlocat
p2758
aVhuge
p2759
aVhost
p2760
aVellen
p2761
aVlocat
p2762
aVfriendli
p2763
aVgreat
p2764
aVbed
p2765
aVjust
p2766
aVstay
p2767
aVnice
p2768
aVhous
p2769
aVellen
p2770
aVhome
p2771
aVhous
p2772
asV1957087
p2773
(lp2774
Vdescrib
p2775
aVgreat
p2776
aVroom
p2777
aVgreat
p2778
aVdescrib
p2779
aVroom
p2780
aVhous
p2781
aVgood
p2782
aVenjoy
p2783
aVdescrib
p2784
aVgreat
p2785
aVeveryth
p2786
aVund
p2787
aVein
p2788
aVes
p2789
asV6970359
p2790
(lp2791
Vstay
p2792
aVnice
p2793
ag145
aVlisa
p2794
aVenjoy
p2795
aVrealli
p2796
aVhous
p2797
aVspace
p2798
aVgreat
p2799
aVlisa
p2800
aVrealli
p2801
aVenjoy
p2802
aVrealli
p2803
aVenjoy
p2804
aVlisa
p2805
asV4198069
p2806
(lp2807
Vday
p2808
aVreserv
p2809
aVpark
p2810
aVlove
p2811
aVstreet
p2812
aVjust
p2813
aVstay
p2814
aVlocat
p2815
aVgreat
p2816
aVlocat
p2817
ag145
aVapart
p2818
aVnice
p2819
aVget
p2820
aVapart
p2821
asV4875549
p2822
(lp2823
Vmike
p2824
aVback
p2825
aVexpert
p2826
ag145
aVmike
p2827
aVstay
p2828
aVvisit
p2829
aVlook
p2830
aVmike
p2831
ag145
aVmike
p2832
aVlook
p2833
aVmike
p2834
ag145
aVhost
p2835
asV6305014
p2836
(lp2837
Vstay
p2838
aVgreat
p2839
aVclean
p2840
aVde
p2841
aVet
p2842
aVlove
p2843
aVclean
p2844
aVstay
p2845
aVstay
p2846
aVgreat
p2847
aVapart
p2848
aVapart
p2849
aVgreat
p2850
aVexperi
p2851
asV8792956
p2852
(lp2853
Vroom
p2854
aVneed
p2855
aVclean
p2856
aVnice
p2857
aVleft
p2858
aVjessica
p2859
aVjessica
p2860
aVnice
p2861
aVroom
p2862
aVjessica
p2863
aVnice
p2864
aVroom
p2865
aVgood
p2866
aVroom
p2867
aVcheck
p2868
asV4461284
p2869
(lp2870
Vwalk
p2871
aVhill
p2872
aVtime
p2873
aVprice
p2874
aVgreat
p2875
aVpressur
p2876
aVgood
p2877
aVlaura
p2878
aVprice
p2879
aVprice
p2880
aVwater
p2881
aVpressur
p2882
aVgreat
p2883
aVstay
p2884
aVsuper
p2885
asV52650
p2886
(lp2887
Valex
p2888
aVstay
p2889
aVroom
p2890
aVund
p2891
aVfamili
p2892
aVday
p2893
aValex
p2894
aVstay
p2895
aVhost
p2896
aVstay
p2897
aVroom
p2898
aVfamili
p2899
ag159
aVper
p2900
aVdi
p2901
asV6572614
p2902
(lp2903
Vskyler
p2904
aVhous
p2905
aVrealli
p2906
aVwelcom
p2907
aVgreat
p2908
aVexperi
p2909
aVhost
p2910
aVeveryth
p2911
aVplace
p2912
aVwelcom
p2913
aVgreat
p2914
aVexperi
p2915
aVskyler
p2916
aVstay
p2917
aVsf
p2918
asV6940448
p2919
(lp2920
Vhome
p2921
aVus
p2922
aVneighborhood
p2923
asV111523
p2924
(lp2925
Vhome
p2926
aVstay
p2927
aVlocat
p2928
aVet
p2929
aVde
p2930
aVde
p2931
aVet
p2932
aVla
p2933
aVstay
p2934
aVus
p2935
aVarea
p2936
aVle
p2937
aVde
p2938
aVtransport
p2939
asV3318869
p2940
(lp2941
Vstreet
p2942
aVsleep
p2943
aVcancel
p2944
aVapart
p2945
aVhelp
p2946
aVgreat
p2947
aVsertac
p2948
ag145
aVapart
p2949
aVus
p2950
aVgreat
p2951
aVarriv
p2952
asV1299868
p2953
(lp2954
Vroom
p2955
aVsf
p2956
aVpaul
p2957
aVroom
p2958
aVpaul
p2959
aVsf
p2960
aVpaul
p2961
aVsf
p2962
aValso
p2963
aVrealli
p2964
aVpaul
p2965
aVgreat
p2966
aVpaul
p2967
aVwork
p2968
aVperfect
p2969
asV5969483
p2970
(lp2971
Vbuse
p2972
aVright
p2973
aVhous
p2974
aVback
p2975
aVright
p2976
aVplace
p2977
aVback
p2978
aVbart
p2979
aVcome
p2980
aVgreat
p2981
aVdefinit
p2982
aVpiec
p2983
aVmade
p2984
aVright
p2985
aVbart
p2986
asV3394579
p2987
(lp2988
Vclean
p2989
aVhost
p2990
aVdefinit
p2991
aVclean
p2992
aVgreat
p2993
aVsea
p2994
aVhome
p2995
aVlisa
p2996
aVjenni
p2997
aVclean
p2998
aVhost
p2999
aVdefinit
p3000
aVhous
p3001
aVlove
p3002
aVjenni
p3003
asV8077608
p3004
(lp3005
Vapart
p3006
aVrespons
p3007
aVodi
p3008
aVcheck
p3009
aVstay
p3010
aVanticip
p3011
aVapart
p3012
aVodi
p3013
aVrespons
p3014
aVrespons
p3015
aVlove
p3016
aVodi
p3017
aVodi
p3018
aVapart
p3019
aVlove
p3020
asV2889301
p3021
(lp3022
Vgreat
p3023
aVjosh
p3024
aVapart
p3025
aVplace
p3026
aVgood
p3027
aVhost
p3028
aVgreat
p3029
aVgood
p3030
aVplace
p3031
aVgreat
p3032
aVjosh
p3033
aVthank
p3034
aVstay
p3035
aVjosh
p3036
aVplace
p3037
asV958749
p3038
(lp3039
Vdenay
p3040
aVdog
p3041
ag145
aVdenay
p3042
aVgreat
p3043
aVplace
p3044
aVdenay
p3045
ag145
aVgreat
p3046
aVgreat
p3047
aVdenay
p3048
aVstay
p3049
aVdenay
p3050
aVgreat
p3051
aVstay
p3052
asV1578597
p3053
(lp3054
Vplace
p3055
aVsan
p3056
aVstay
p3057
aVgreat
p3058
aVplace
p3059
aVstay
p3060
aVstay
p3061
aVjon
p3062
aVneed
p3063
aVde
p3064
aVmin
p3065
aVstreet
p3066
aVgreat
p3067
aVjon
p3068
aVstay
p3069
asV8721500
p3070
(lp3071
Vmission
p3072
aVstay
p3073
aVgreat
p3074
aVroom
p3075
aVcozi
p3076
aVcomfi
p3077
aVjd
p3078
aVset
p3079
aVtrip
p3080
aVcomfi
p3081
aVsoft
p3082
aVbed
p3083
aVroom
p3084
aVbed
p3085
aVsoft
p3086
asV8459888
p3087
(lp3088
Vpost
p3089
aVautom
p3090
aVcancel
p3091
aVarriv
p3092
aVautom
p3093
aVday
p3094
aVhost
p3095
aVarriv
p3096
aVarriv
p3097
aVreserv
p3098
aVhost
p3099
aVreserv
p3100
aVarriv
p3101
aVcancel
p3102
asV1456045
p3103
(lp3104
Vcynthia
p3105
aVstay
p3106
aVplace
p3107
aVwir
p3108
aVund
p3109
aVsie
p3110
aVcynthia
p3111
aVsan
p3112
aVapart
p3113
aVque
p3114
ag454
aVla
p3115
aVcynthia
p3116
aVgreat
p3117
aVstay
p3118
asV24723
p3119
(lp3120
Vapart
p3121
aVstay
p3122
aVcynthia
p3123
aVapart
p3124
aVstay
p3125
aVcynthia
p3126
aVgreat
p3127
aVstay
p3128
aVplace
p3129
aVde
p3130
aVet
p3131
aVle
p3132
aVapart
p3133
aVcan
p3134
aVfull
p3135
asV3687152
p3136
(lp3137
Veasi
p3138
aVtalk
p3139
aVstylish
p3140
aVwhole
p3141
aVheart
p3142
aVtrendi
p3143
aVeasi
p3144
aVhay
p3145
aVsituat
p3146
aVsituat
p3147
aVeasi
p3148
aVrecommend
p3149
aVarea
p3150
aVcommun
p3151
aVhost
p3152
asV1798458
p3153
(lp3154
Vund
p3155
aVapart
p3156
aVtyler
p3157
aVstay
p3158
aVgreat
p3159
aVtyler
p3160
ag145
aVtyler
p3161
aVplace
p3162
aVtyler
p3163
aVgreat
p3164
aVplace
p3165
aVtyler
p3166
aVplace
p3167
aVstay
p3168
asV245359
p3169
(lp3170
Vjoninna
p3171
aVstay
p3172
aVgreat
p3173
aVpark
p3174
aVcomfort
p3175
aVjoninna
p3176
aVjoninna
p3177
aVgreat
p3178
aVplace
p3179
aVsever
p3180
aVairbnb
p3181
aVlove
p3182
ag145
aVde
p3183
aVet
p3184
as.