(dp0
I0
S'1162609'
p1
sI1
S'6032828'
p2
sI2
S'6938818'
p3
sI3
S'8087607'
p4
sI4
S'4781448'
p5
sI5
S'1931937'
p6
sI6
S'2134100'
p7
sI7
S'4688930'
p8
sI8
S'2316478'
p9
sI9
S'3168359'
p10
sI10
S'8001958'
p11
sI11
S'69681'
p12
sI12
S'8388658'
p13
sI13
S'5895521'
p14
sI14
S'7004908'
p15
sI15
S'6837076'
p16
sI16
S'7825720'
p17
sI17
S'8568925'
p18
sI18
S'746079'
p19
sI19
S'1499843'
p20
sI20
S'8473252'
p21
sI21
S'4321720'
p22
sI22
S'5031525'
p23
sI23
S'5286047'
p24
sI24
S'348714'
p25
sI25
S'7858587'
p26
sI26
S'896938'
p27
sI27
S'265925'
p28
sI28
S'1101323'
p29
sI29
S'2217557'
p30
sI30
S'4227441'
p31
sI31
S'6730006'
p32
sI32
S'449539'
p33
sI33
S'5320351'
p34
sI34
S'3122882'
p35
sI35
S'332781'
p36
sI36
S'8155106'
p37
sI37
S'611132'
p38
sI38
S'166771'
p39
sI39
S'1074231'
p40
sI40
S'2738331'
p41
sI41
S'3138935'
p42
sI42
S'7933365'
p43
sI43
S'501770'
p44
sI44
S'9119233'
p45
sI45
S'6855106'
p46
sI46
S'503362'
p47
sI47
S'2854817'
p48
sI48
S'288380'
p49
sI49
S'8933606'
p50
sI50
S'8844548'
p51
sI51
S'9186305'
p52
sI52
S'5480080'
p53
sI53
S'2825966'
p54
sI54
S'6884320'
p55
sI55
S'1947404'
p56
sI56
S'4638571'
p57
sI57
S'8119550'
p58
sI58
S'2965351'
p59
sI59
S'8904701'
p60
sI60
S'4729656'
p61
sI61
S'6748152'
p62
sI62
S'6704875'
p63
sI63
S'3569485'
p64
sI64
S'8145173'
p65
sI65
S'5846018'
p66
sI66
S'6289857'
p67
sI67
S'5538737'
p68
sI68
S'4183994'
p69
sI69
S'3006861'
p70
sI70
S'6934361'
p71
sI71
S'91957'
p72
sI72
S'3133266'
p73
sI73
S'1280637'
p74
sI74
S'6414298'
p75
sI75
S'130565'
p76
sI76
S'3757966'
p77
sI77
S'5204426'
p78
sI78
S'7519084'
p79
sI79
S'783149'
p80
sI80
S'4508644'
p81
sI81
S'7788825'
p82
sI82
S'6451098'
p83
sI83
S'5960738'
p84
sI84
S'2407150'
p85
sI85
S'1203526'
p86
sI86
S'8762798'
p87
sI87
S'2570105'
p88
sI88
S'8428014'
p89
sI89
S'5196142'
p90
sI90
S'7763272'
p91
sI91
S'7518636'
p92
sI92
S'581662'
p93
sI93
S'4663440'
p94
sI94
S'2272343'
p95
sI95
S'4966389'
p96
sI96
S'4173531'
p97
sI97
S'6202483'
p98
sI98
S'3693782'
p99
sI99
S'3333870'
p100
sI100
S'5632516'
p101
sI101
S'12042'
p102
sI102
S'8634418'
p103
sI103
S'3758015'
p104
sI104
S'1864121'
p105
sI105
S'3068909'
p106
sI106
S'4379621'
p107
sI107
S'8036268'
p108
sI108
S'2736358'
p109
sI109
S'466678'
p110
sI110
S'1208928'
p111
sI111
S'8761630'
p112
sI112
S'7361644'
p113
sI113
S'571042'
p114
sI114
S'2679262'
p115
sI115
S'1467352'
p116
sI116
S'4766073'
p117
sI117
S'8549356'
p118
sI118
S'1569288'
p119
sI119
S'4572674'
p120
sI120
S'8870179'
p121
sI121
S'3626598'
p122
sI122
S'43778'
p123
sI123
S'1605483'
p124
sI124
S'5340544'
p125
sI125
S'64846'
p126
sI126
S'5685131'
p127
sI127
S'8584491'
p128
sI128
S'7546229'
p129
sI129
S'6290098'
p130
sI130
S'8781629'
p131
sI131
S'1768239'
p132
sI132
S'1309496'
p133
sI133
S'6749830'
p134
sI134
S'8923732'
p135
sI135
S'269463'
p136
sI136
S'4550232'
p137
sI137
S'4061312'
p138
sI138
S'6955466'
p139
sI139
S'8071493'
p140
sI140
S'4061075'
p141
sI141
S'5863297'
p142
sI142
S'449532'
p143
sI143
S'130775'
p144
sI144
S'10828'
p145
sI145
S'8353187'
p146
sI146
S'9119974'
p147
sI147
S'10820'
p148
sI148
S'126046'
p149
sI149
S'5632672'
p150
sI150
S'2585167'
p151
sI151
S'7664209'
p152
sI152
S'6812162'
p153
sI153
S'226594'
p154
sI154
S'749990'
p155
sI155
S'455074'
p156
sI156
S'3731481'
p157
sI157
S'5685743'
p158
sI158
S'1206261'
p159
sI159
S'6503753'
p160
sI160
S'1206233'
p161
sI161
S'1633881'
p162
sI162
S'1961535'
p163
sI163
S'1990396'
p164
sI164
S'749744'
p165
sI165
S'2289801'
p166
sI166
S'3240016'
p167
sI167
S'2026910'
p168
sI168
S'8842631'
p169
sI169
S'8688192'
p170
sI170
S'4677514'
p171
sI171
S'2485508'
p172
sI172
S'70185'
p173
sI173
S'191632'
p174
sI174
S'6909057'
p175
sI175
S'3697738'
p176
sI176
S'7302136'
p177
sI177
S'715754'
p178
sI178
S'27505'
p179
sI179
S'3861272'
p180
sI180
S'5762374'
p181
sI181
S'1145492'
p182
sI182
S'8908906'
p183
sI183
S'6645606'
p184
sI184
S'2222631'
p185
sI185
S'5466632'
p186
sI186
S'8055186'
p187
sI187
S'911029'
p188
sI188
S'563887'
p189
sI189
S'1206184'
p190
sI190
S'8053887'
p191
sI191
S'3499089'
p192
sI192
S'3728917'
p193
sI193
S'3133434'
p194
sI194
S'5627843'
p195
sI195
S'7666482'
p196
sI196
S'4024884'
p197
sI197
S'7293926'
p198
sI198
S'5033949'
p199
sI199
S'1728043'
p200
sI200
S'3563032'
p201
sI201
S'2406999'
p202
sI202
S'6054929'
p203
sI203
S'7562249'
p204
sI204
S'8171889'
p205
sI205
S'24685'
p206
sI206
S'1989997'
p207
sI207
S'7265661'
p208
sI208
S'220418'
p209
sI209
S'691446'
p210
sI210
S'2057185'
p211
sI211
S'8444947'
p212
sI212
S'449534'
p213
sI213
S'449528'
p214
sI214
S'449505'
p215
sI215
S'894118'
p216
sI216
S'678556'
p217
sI217
S'4774580'
p218
sI218
S'580106'
p219
sI219
S'8553248'
p220
sI220
S'6575965'
p221
sI221
S'939833'
p222
sI222
S'7748868'
p223
sI223
S'4886010'
p224
sI224
S'6467452'
p225
sI225
S'4236507'
p226
sI226
S'4477314'
p227
sI227
S'7327090'
p228
sI228
S'6639593'
p229
sI229
S'283235'
p230
sI230
S'6941379'
p231
sI231
S'3939307'
p232
sI232
S'593165'
p233
sI233
S'3945201'
p234
sI234
S'5196859'
p235
sI235
S'5730174'
p236
sI236
S'8522932'
p237
sI237
S'3459007'
p238
sI238
S'3458988'
p239
sI239
S'3491545'
p240
sI240
S'3491540'
p241
sI241
S'9094828'
p242
sI242
S'149108'
p243
sI243
S'4959820'
p244
sI244
S'379349'
p245
sI245
S'1919372'
p246
sI246
S'8189664'
p247
sI247
S'1067270'
p248
sI248
S'336133'
p249
sI249
S'8976130'
p250
sI250
S'5589500'
p251
sI251
S'3229488'
p252
sI252
S'607500'
p253
sI253
S'7619767'
p254
sI254
S'8340658'
p255
sI255
S'476239'
p256
sI256
S'1130628'
p257
sI257
S'3456155'
p258
sI258
S'1144148'
p259
sI259
S'8470531'
p260
sI260
S'8994562'
p261
sI261
S'245481'
p262
sI262
S'5620514'
p263
sI263
S'6374167'
p264
sI264
S'8102010'
p265
sI265
S'2081420'
p266
sI266
S'213532'
p267
sI267
S'1783174'
p268
sI268
S'8569939'
p269
sI269
S'7717877'
p270
sI270
S'3194383'
p271
sI271
S'8371368'
p272
sI272
S'1259727'
p273
sI273
S'212783'
p274
sI274
S'7388234'
p275
sI275
S'2309140'
p276
sI276
S'8338413'
p277
sI277
S'149996'
p278
sI278
S'8142'
p279
sI279
S'4046133'
p280
sI280
S'2407670'
p281
sI281
S'2046552'
p282
sI282
S'7345947'
p283
sI283
S'7861157'
p284
sI284
S'3488136'
p285
sI285
S'997382'
p286
sI286
S'8566804'
p287
sI287
S'6764475'
p288
sI288
S'8762652'
p289
sI289
S'4932358'
p290
sI290
S'2801419'
p291
sI291
S'930955'
p292
sI292
S'1259611'
p293
sI293
S'3454059'
p294
sI294
S'5550110'
p295
sI295
S'209514'
p296
sI296
S'962126'
p297
sI297
S'8924702'
p298
sI298
S'798222'
p299
sI299
S'1945508'
p300
sI300
S'5927579'
p301
sI301
S'12041'
p302
sI302
S'8629384'
p303
sI303
S'4030029'
p304
sI304
S'7842860'
p305
sI305
S'8084655'
p306
sI306
S'7220086'
p307
sI307
S'1944382'
p308
sI308
S'6957711'
p309
sI309
S'8449727'
p310
sI310
S'9054512'
p311
sI311
S'8104212'
p312
sI312
S'960593'
p313
sI313
S'5285771'
p314
sI314
S'7022309'
p315
sI315
S'2303080'
p316
sI316
S'1975404'
p317
sI317
S'782515'
p318
sI318
S'1696666'
p319
sI319
S'7807841'
p320
sI320
S'4235888'
p321
sI321
S'4236576'
p322
sI322
S'1352861'
p323
sI323
S'5218679'
p324
sI324
S'7918'
p325
sI325
S'3480260'
p326
sI326
S'3843704'
p327
sI327
S'8103392'
p328
sI328
S'4695477'
p329
sI329
S'4244943'
p330
sI330
S'794649'
p331
sI331
S'1122318'
p332
sI332
S'859336'
p333
sI333
S'5807320'
p334
sI334
S'7806162'
p335
sI335
S'9053806'
p336
sI336
S'9051149'
p337
sI337
S'6888361'
p338
sI338
S'7937819'
p339
sI339
S'4182555'
p340
sI340
S'6812179'
p341
sI341
S'7478631'
p342
sI342
S'7052024'
p343
sI343
S'3480210'
p344
sI344
S'1186228'
p345
sI345
S'1743201'
p346
sI346
S'5117430'
p347
sI347
S'8164773'
p348
sI348
S'3052906'
p349
sI349
S'3904810'
p350
sI350
S'1053945'
p351
sI351
S'5762600'
p352
sI352
S'791573'
p353
sI353
S'1633933'
p354
sI354
S'8591098'
p355
sI355
S'1480404'
p356
sI356
S'1336798'
p357
sI357
S'6001463'
p358
sI358
S'1416460'
p359
sI359
S'37245'
p360
sI360
S'7180644'
p361
sI361
S'7811596'
p362
sI362
S'955071'
p363
sI363
S'330535'
p364
sI364
S'298992'
p365
sI365
S'3215063'
p366
sI366
S'8392381'
p367
sI367
S'4198069'
p368
sI368
S'2166428'
p369
sI369
S'7204489'
p370
sI370
S'1346837'
p371
sI371
S'658687'
p372
sI372
S'1936618'
p373
sI373
S'6328186'
p374
sI374
S'5849626'
p375
sI375
S'8457292'
p376
sI376
S'5526235'
p377
sI377
S'2559297'
p378
sI378
S'7859297'
p379
sI379
S'2558505'
p380
sI380
S'7178670'
p381
sI381
S'2361693'
p382
sI382
S'7113061'
p383
sI383
S'1148625'
p384
sI384
S'8488103'
p385
sI385
S'7734361'
p386
sI386
S'7146315'
p387
sI387
S'5850735'
p388
sI388
S'21914'
p389
sI389
S'4861044'
p390
sI390
S'4623011'
p391
sI391
S'459806'
p392
sI392
S'6783618'
p393
sI393
S'7310267'
p394
sI394
S'7132731'
p395
sI395
S'4851030'
p396
sI396
S'8389831'
p397
sI397
S'426558'
p398
sI398
S'754117'
p399
sI399
S'8847741'
p400
sI400
S'7968117'
p401
sI401
S'8192881'
p402
sI402
S'920942'
p403
sI403
S'1344306'
p404
sI404
S'8540300'
p405
sI405
S'6872036'
p406
sI406
S'4371259'
p407
sI407
S'6894794'
p408
sI408
S'1789916'
p409
sI409
S'2547844'
p410
sI410
S'7352798'
p411
sI411
S'3386658'
p412
sI412
S'6301983'
p413
sI413
S'2171581'
p414
sI414
S'8846036'
p415
sI415
S'5550248'
p416
sI416
S'752762'
p417
sI417
S'8275596'
p418
sI418
S'2047469'
p419
sI419
S'2088622'
p420
sI420
S'2160504'
p421
sI421
S'2546569'
p422
sI422
S'277339'
p423
sI423
S'9098023'
p424
sI424
S'8341345'
p425
sI425
S'797887'
p426
sI426
S'706504'
p427
sI427
S'2436213'
p428
sI428
S'8130665'
p429
sI429
S'4165008'
p430
sI430
S'7482687'
p431
sI431
S'3678498'
p432
sI432
S'3262216'
p433
sI433
S'3868020'
p434
sI434
S'7965780'
p435
sI435
S'1162640'
p436
sI436
S'7692167'
p437
sI437
S'2520998'
p438
sI438
S'2274353'
p439
sI439
S'8778462'
p440
sI440
S'1504826'
p441
sI441
S'1489175'
p442
sI442
S'7181467'
p443
sI443
S'6728152'
p444
sI444
S'6671126'
p445
sI445
S'2102267'
p446
sI446
S'5928915'
p447
sI447
S'8839169'
p448
sI448
S'3832296'
p449
sI449
S'1898173'
p450
sI450
S'2042095'
p451
sI451
S'7007123'
p452
sI452
S'3962084'
p453
sI453
S'651624'
p454
sI454
S'1732805'
p455
sI455
S'815183'
p456
sI456
S'7400941'
p457
sI457
S'4417802'
p458
sI458
S'8153746'
p459
sI459
S'3860737'
p460
sI460
S'8616939'
p461
sI461
S'1206032'
p462
sI462
S'6863827'
p463
sI463
S'9135459'
p464
sI464
S'4810069'
p465
sI465
S'287907'
p466
sI466
S'1637123'
p467
sI467
S'3432238'
p468
sI468
S'5693049'
p469
sI469
S'568161'
p470
sI470
S'2710431'
p471
sI471
S'7263500'
p472
sI472
S'6837240'
p473
sI473
S'708862'
p474
sI474
S'2444713'
p475
sI475
S'652004'
p476
sI476
S'8473735'
p477
sI477
S'1920066'
p478
sI478
S'6801319'
p479
sI479
S'5196116'
p480
sI480
S'3293347'
p481
sI481
S'4464632'
p482
sI482
S'1351626'
p483
sI483
S'8014'
p484
sI484
S'7093018'
p485
sI485
S'2046634'
p486
sI486
S'8992596'
p487
sI487
S'7092179'
p488
sI488
S'2570381'
p489
sI489
S'2356515'
p490
sI490
S'6238992'
p491
sI491
S'6238980'
p492
sI492
S'633629'
p493
sI493
S'536929'
p494
sI494
S'7350245'
p495
sI495
S'6728250'
p496
sI496
S'5286313'
p497
sI497
S'8595489'
p498
sI498
S'8918081'
p499
sI499
S'3221082'
p500
sI500
S'4510968'
p501
sI501
S'8069026'
p502
sI502
S'4069838'
p503
sI503
S'7701360'
p504
sI504
S'3053569'
p505
sI505
S'2594714'
p506
sI506
S'7071255'
p507
sI507
S'7734079'
p508
sI508
S'2785986'
p509
sI509
S'2625535'
p510
sI510
S'233431'
p511
sI511
S'1183454'
p512
sI512
S'3116808'
p513
sI513
S'625655'
p514
sI514
S'3294235'
p515
sI515
S'2721834'
p516
sI516
S'493889'
p517
sI517
S'6490965'
p518
sI518
S'2558688'
p519
sI519
S'4556764'
p520
sI520
S'1299979'
p521
sI521
S'9164334'
p522
sI522
S'689356'
p523
sI523
S'3578473'
p524
sI524
S'7337432'
p525
sI525
S'2436131'
p526
sI526
S'6702046'
p527
sI527
S'8117798'
p528
sI528
S'6119870'
p529
sI529
S'805905'
p530
sI530
S'8257534'
p531
sI531
S'8539905'
p532
sI532
S'2468125'
p533
sI533
S'4637794'
p534
sI534
S'6612484'
p535
sI535
S'5318758'
p536
sI536
S'4902565'
p537
sI537
S'9120791'
p538
sI538
S'4902063'
p539
sI539
S'6885816'
p540
sI540
S'8597259'
p541
sI541
S'5260816'
p542
sI542
S'3283844'
p543
sI543
S'6866911'
p544
sI544
S'9064617'
p545
sI545
S'8050050'
p546
sI546
S'7388613'
p547
sI547
S'2728615'
p548
sI548
S'5076422'
p549
sI549
S'8971867'
p550
sI550
S'6583338'
p551
sI551
S'2160741'
p552
sI552
S'4540475'
p553
sI553
S'7810617'
p554
sI554
S'8239944'
p555
sI555
S'7499734'
p556
sI556
S'7958349'
p557
sI557
S'9157775'
p558
sI558
S'7008486'
p559
sI559
S'2771097'
p560
sI560
S'9091334'
p561
sI561
S'8993307'
p562
sI562
S'1684346'
p563
sI563
S'2412489'
p564
sI564
S'8084285'
p565
sI565
S'2227475'
p566
sI566
S'8421068'
p567
sI567
S'2937902'
p568
sI568
S'3479263'
p569
sI569
S'1926261'
p570
sI570
S'1510980'
p571
sI571
S'8598274'
p572
sI572
S'2943327'
p573
sI573
S'9052035'
p574
sI574
S'6846451'
p575
sI575
S'7748321'
p576
sI576
S'8861480'
p577
sI577
S'8580860'
p578
sI578
S'4777153'
p579
sI579
S'1488084'
p580
sI580
S'2304060'
p581
sI581
S'7620461'
p582
sI582
S'7583236'
p583
sI583
S'2145207'
p584
sI584
S'7716027'
p585
sI585
S'1660542'
p586
sI586
S'6302641'
p587
sI587
S'1798458'
p588
sI588
S'8287787'
p589
sI589
S'1248546'
p590
sI590
S'5387890'
p591
sI591
S'8035608'
p592
sI592
S'1857411'
p593
sI593
S'5259978'
p594
sI594
S'480737'
p595
sI595
S'5793128'
p596
sI596
S'6750199'
p597
sI597
S'7958214'
p598
sI598
S'8421353'
p599
sI599
S'8651569'
p600
sI600
S'2960229'
p601
sI601
S'56715'
p602
sI602
S'785708'
p603
sI603
S'7240598'
p604
sI604
S'9173711'
p605
sI605
S'1474209'
p606
sI606
S'8650389'
p607
sI607
S'7143032'
p608
sI608
S'6748108'
p609
sI609
S'638875'
p610
sI610
S'2496471'
p611
sI611
S'8033268'
p612
sI612
S'227797'
p613
sI613
S'6289820'
p614
sI614
S'8779243'
p615
sI615
S'4060582'
p616
sI616
S'3767697'
p617
sI617
S'3830608'
p618
sI618
S'5468835'
p619
sI619
S'8559800'
p620
sI620
S'4256305'
p621
sI621
S'7498832'
p622
sI622
S'8213931'
p623
sI623
S'1995873'
p624
sI624
S'9138681'
p625
sI625
S'7860186'
p626
sI626
S'7958316'
p627
sI627
S'7727048'
p628
sI628
S'7958168'
p629
sI629
S'7204414'
p630
sI630
S'7860532'
p631
sI631
S'6451436'
p632
sI632
S'8089051'
p633
sI633
S'683184'
p634
sI634
S'7958278'
p635
sI635
S'7367530'
p636
sI636
S'224590'
p637
sI637
S'6810220'
p638
sI638
S'5007358'
p639
sI639
S'1539028'
p640
sI640
S'6416081'
p641
sI641
S'6514662'
p642
sI642
S'7005242'
p643
sI643
S'3105383'
p644
sI644
S'8474873'
p645
sI645
S'8594771'
p646
sI646
S'4902907'
p647
sI647
S'122829'
p648
sI648
S'6939508'
p649
sI649
S'1827655'
p650
sI650
S'1629740'
p651
sI651
S'7921810'
p652
sI652
S'4334811'
p653
sI653
S'5070054'
p654
sI654
S'5069984'
p655
sI655
S'7895549'
p656
sI656
S'7952959'
p657
sI657
S'5298714'
p658
sI658
S'7068172'
p659
sI659
S'8543162'
p660
sI660
S'8135152'
p661
sI661
S'3036967'
p662
sI662
S'7263986'
p663
sI663
S'3069680'
p664
sI664
S'1299868'
p665
sI665
S'7460240'
p666
sI666
S'6453650'
p667
sI667
S'910338'
p668
sI668
S'2478558'
p669
sI669
S'8540473'
p670
sI670
S'8474860'
p671
sI671
S'8409087'
p672
sI672
S'4902855'
p673
sI673
S'4902799'
p674
sI674
S'5918042'
p675
sI675
S'8310040'
p676
sI676
S'3689632'
p677
sI677
S'4541571'
p678
sI678
S'1624068'
p679
sI679
S'4638678'
p680
sI680
S'1918589'
p681
sI681
S'9156193'
p682
sI682
S'8046135'
p683
sI683
S'7829055'
p684
sI684
S'2049383'
p685
sI685
S'2279254'
p686
sI686
S'2933899'
p687
sI687
S'8634602'
p688
sI688
S'16551'
p689
sI689
S'7749616'
p690
sI690
S'1916682'
p691
sI691
S'2146056'
p692
sI692
S'8077608'
p693
sI693
S'4833664'
p694
sI694
S'8274196'
p695
sI695
S'2114508'
p696
sI696
S'8208269'
p697
sI697
S'7162430'
p698
sI698
S'8942819'
p699
sI699
S'9157940'
p700
sI700
S'8993301'
p701
sI701
S'8993293'
p702
sI702
S'8993289'
p703
sI703
S'1832479'
p704
sI704
S'5027631'
p705
sI705
S'571115'
p706
sI706
S'6764986'
p707
sI707
S'1620039'
p708
sI708
S'2111361'
p709
sI709
S'1520734'
p710
sI710
S'79420'
p711
sI711
S'7133178'
p712
sI712
S'8685716'
p713
sI713
S'7419046'
p714
sI714
S'8685570'
p715
sI715
S'657259'
p716
sI716
S'1487472'
p717
sI717
S'1225319'
p718
sI718
S'7844468'
p719
sI719
S'8565153'
p720
sI720
S'8565105'
p721
sI721
S'6958513'
p722
sI722
S'6925508'
p723
sI723
S'1551553'
p724
sI724
S'4304755'
p725
sI725
S'208714'
p726
sI726
S'7548762'
p727
sI727
S'4067983'
p728
sI728
S'4795170'
p729
sI729
S'208235'
p730
sI730
S'2043255'
p731
sI731
S'2926901'
p732
sI732
S'4795339'
p733
sI733
S'7631226'
p734
sI734
S'7620288'
p735
sI735
S'4171151'
p736
sI736
S'7950863'
p737
sI737
S'862163'
p738
sI738
S'7416232'
p739
sI739
S'4728615'
p740
sI740
S'1483853'
p741
sI741
S'5122089'
p742
sI742
S'1484792'
p743
sI743
S'8084290'
p744
sI744
S'1614453'
p745
sI745
S'8889588'
p746
sI746
S'1056006'
p747
sI747
S'4987822'
p748
sI748
S'5381942'
p749
sI749
S'7483192'
p750
sI750
S'3469254'
p751
sI751
S'6762434'
p752
sI752
S'7150568'
p753
sI753
S'5642603'
p754
sI754
S'4889244'
p755
sI755
S'8656123'
p756
sI756
S'2959323'
p757
sI757
S'7181461'
p758
sI758
S'3612236'
p759
sI759
S'3774460'
p760
sI760
S'5904304'
p761
sI761
S'1546154'
p762
sI762
S'5019972'
p763
sI763
S'5904305'
p764
sI764
S'5347627'
p765
sI765
S'8558285'
p766
sI766
S'8033975'
p767
sI767
S'8459888'
p768
sI768
S'7837199'
p769
sI769
S'3053867'
p770
sI770
S'7182638'
p771
sI771
S'7246789'
p772
sI772
S'9048955'
p773
sI773
S'9081335'
p774
sI774
S'8328277'
p775
sI775
S'3477850'
p776
sI776
S'233523'
p777
sI777
S'8524509'
p778
sI778
S'2658295'
p779
sI779
S'1183709'
p780
sI780
S'4909117'
p781
sI781
S'6852199'
p782
sI782
S'7318727'
p783
sI783
S'1281167'
p784
sI784
S'7146663'
p785
sI785
S'1837334'
p786
sI786
S'8685766'
p787
sI787
S'4558270'
p788
sI788
S'7638453'
p789
sI789
S'8685652'
p790
sI790
S'8119169'
p791
sI791
S'1378285'
p792
sI792
S'6883183'
p793
sI793
S'9144137'
p794
sI794
S'3442463'
p795
sI795
S'8685943'
p796
sI796
S'4163948'
p797
sI797
S'8554141'
p798
sI798
S'5310051'
p799
sI799
S'6261758'
p800
sI800
S'3378124'
p801
sI801
S'4391988'
p802
sI802
S'6914202'
p803
sI803
S'8848052'
p804
sI804
S'7898445'
p805
sI805
S'8356283'
p806
sI806
S'7897391'
p807
sI807
S'7143666'
p808
sI808
S'8422914'
p809
sI809
S'8891533'
p810
sI810
S'7682618'
p811
sI811
S'147443'
p812
sI812
S'8798853'
p813
sI813
S'40418'
p814
sI814
S'8224149'
p815
sI815
S'2948159'
p816
sI816
S'8384928'
p817
sI817
S'2155675'
p818
sI818
S'3433930'
p819
sI819
S'4318081'
p820
sI820
S'2706776'
p821
sI821
S'7419076'
p822
sI822
S'3167840'
p823
sI823
S'8462305'
p824
sI824
S'7478864'
p825
sI825
S'1857226'
p826
sI826
S'7310228'
p827
sI827
S'7984006'
p828
sI828
S'8341404'
p829
sI829
S'7086626'
p830
sI830
S'1786394'
p831
sI831
S'647360'
p832
sI832
S'9195853'
p833
sI833
S'4606478'
p834
sI834
S'8193943'
p835
sI835
S'4932734'
p836
sI836
S'6627757'
p837
sI837
S'7661206'
p838
sI838
S'6109169'
p839
sI839
S'7919970'
p840
sI840
S'8814311'
p841
sI841
S'949557'
p842
sI842
S'1860937'
p843
sI843
S'3498457'
p844
sI844
S'4264187'
p845
sI845
S'4743997'
p846
sI846
S'2112300'
p847
sI847
S'4788329'
p848
sI848
S'9198601'
p849
sI849
S'8540406'
p850
sI850
S'576473'
p851
sI851
S'8342178'
p852
sI852
S'3513741'
p853
sI853
S'3752365'
p854
sI854
S'2146200'
p855
sI855
S'5454837'
p856
sI856
S'3489027'
p857
sI857
S'6716377'
p858
sI858
S'1198251'
p859
sI859
S'5059214'
p860
sI860
S'8405020'
p861
sI861
S'8654493'
p862
sI862
S'9112780'
p863
sI863
S'535743'
p864
sI864
S'8842266'
p865
sI865
S'9110933'
p866
sI866
S'7229828'
p867
sI867
S'8053899'
p868
sI868
S'4825464'
p869
sI869
S'3106067'
p870
sI870
S'8363922'
p871
sI871
S'8887700'
p872
sI872
S'1636525'
p873
sI873
S'238190'
p874
sI874
S'7827513'
p875
sI875
S'6834946'
p876
sI876
S'6694154'
p877
sI877
S'59381'
p878
sI878
S'3125485'
p879
sI879
S'8763107'
p880
sI880
S'8656104'
p881
sI881
S'3980446'
p882
sI882
S'5957875'
p883
sI883
S'6074750'
p884
sI884
S'4061796'
p885
sI885
S'7715542'
p886
sI886
S'8578836'
p887
sI887
S'6852800'
p888
sI888
S'9165138'
p889
sI889
S'2695774'
p890
sI890
S'1456045'
p891
sI891
S'7825894'
p892
sI892
S'7950884'
p893
sI893
S'5658857'
p894
sI894
S'7859868'
p895
sI895
S'8703522'
p896
sI896
S'6156509'
p897
sI897
S'6777741'
p898
sI898
S'1864687'
p899
sI899
S'8472904'
p900
sI900
S'6216025'
p901
sI901
S'1303919'
p902
sI902
S'4802613'
p903
sI903
S'7094669'
p904
sI904
S'4891893'
p905
sI905
S'4022846'
p906
sI906
S'1776587'
p907
sI907
S'1433011'
p908
sI908
S'2208135'
p909
sI909
S'3354004'
p910
sI910
S'8439920'
p911
sI911
S'8276064'
p912
sI912
S'7579821'
p913
sI913
S'8152237'
p914
sI914
S'1237296'
p915
sI915
S'1145668'
p916
sI916
S'7887238'
p917
sI917
S'8635402'
p918
sI918
S'4317833'
p919
sI919
S'4956493'
p920
sI920
S'8972168'
p921
sI921
S'992596'
p922
sI922
S'810969'
p923
sI923
S'442714'
p924
sI924
S'3939813'
p925
sI925
S'7733046'
p926
sI926
S'1932656'
p927
sI927
S'8256786'
p928
sI928
S'8682664'
p929
sI929
S'8780906'
p930
sI930
S'981913'
p931
sI931
S'6584942'
p932
sI932
S'3176619'
p933
sI933
S'2783251'
p934
sI934
S'5838582'
p935
sI935
S'947860'
p936
sI936
S'7402811'
p937
sI937
S'1209159'
p938
sI938
S'1999959'
p939
sI939
S'7421483'
p940
sI940
S'783498'
p941
sI941
S'8352853'
p942
sI942
S'1995254'
p943
sI943
S'2519053'
p944
sI944
S'2448356'
p945
sI945
S'519796'
p946
sI946
S'1076743'
p947
sI947
S'441775'
p948
sI948
S'7696468'
p949
sI949
S'6902349'
p950
sI950
S'7564371'
p951
sI951
S'4549485'
p952
sI952
S'4476703'
p953
sI953
S'976150'
p954
sI954
S'7856587'
p955
sI955
S'1597830'
p956
sI956
S'6415219'
p957
sI957
S'516811'
p958
sI958
S'5955398'
p959
sI959
S'506465'
p960
sI960
S'6729770'
p961
sI961
S'1712573'
p962
sI962
S'221342'
p963
sI963
S'5202841'
p964
sI964
S'4808376'
p965
sI965
S'5004959'
p966
sI966
S'7955727'
p967
sI967
S'9015055'
p968
sI968
S'416308'
p969
sI969
S'939996'
p970
sI970
S'7067609'
p971
sI971
S'1857709'
p972
sI972
S'4121415'
p973
sI973
S'6869890'
p974
sI974
S'3116974'
p975
sI975
S'6955807'
p976
sI976
S'8344035'
p977
sI977
S'643490'
p978
sI978
S'4510120'
p979
sI979
S'2512056'
p980
sI980
S'8213608'
p981
sI981
S'8737068'
p982
sI982
S'3592203'
p983
sI983
S'5683192'
p984
sI984
S'4379244'
p985
sI985
S'7918156'
p986
sI986
S'1036860'
p987
sI987
S'6705673'
p988
sI988
S'1462029'
p989
sI989
S'2510204'
p990
sI990
S'5525110'
p991
sI991
S'8735636'
p992
sI992
S'1198860'
p993
sI993
S'4016307'
p994
sI994
S'4016268'
p995
sI995
S'3655811'
p996
sI996
S'607913'
p997
sI997
S'1133038'
p998
sI998
S'6079779'
p999
sI999
S'2965433'
p1000
sI1000
S'7222560'
p1001
sI1001
S'8602519'
p1002
sI1002
S'7914349'
p1003
sI1003
S'5522423'
p1004
sI1004
S'685320'
p1005
sI1005
S'8207372'
p1006
sI1006
S'8273250'
p1007
sI1007
S'3750361'
p1008
sI1008
S'1751109'
p1009
sI1009
S'2242598'
p1010
sI1010
S'4896087'
p1011
sI1011
S'7714005'
p1012
sI1012
S'7418703'
p1013
sI1013
S'9007825'
p1014
sI1014
S'1733326'
p1015
sI1015
S'490215'
p1016
sI1016
S'3813512'
p1017
sI1017
S'4190911'
p1018
sI1018
S'208831'
p1019
sI1019
S'105802'
p1020
sI1020
S'4829708'
p1021
sI1021
S'8117490'
p1022
sI1022
S'6237998'
p1023
sI1023
S'4491042'
p1024
sI1024
S'4729489'
p1025
sI1025
S'8690735'
p1026
sI1026
S'7842771'
p1027
sI1027
S'141545'
p1028
sI1028
S'7481182'
p1029
sI1029
S'4256050'
p1030
sI1030
S'3318869'
p1031
sI1031
S'4924665'
p1032
sI1032
S'2089801'
p1033
sI1033
S'1738133'
p1034
sI1034
S'3907765'
p1035
sI1035
S'3907764'
p1036
sI1036
S'468490'
p1037
sI1037
S'3130732'
p1038
sI1038
S'4157431'
p1039
sI1039
S'565530'
p1040
sI1040
S'2727041'
p1041
sI1041
S'640735'
p1042
sI1042
S'5020770'
p1043
sI1043
S'2203488'
p1044
sI1044
S'738547'
p1045
sI1045
S'269097'
p1046
sI1046
S'825900'
p1047
sI1047
S'8428506'
p1048
sI1048
S'8759773'
p1049
sI1049
S'1316135'
p1050
sI1050
S'955377'
p1051
sI1051
S'3544033'
p1052
sI1052
S'7936123'
p1053
sI1053
S'6887261'
p1054
sI1054
S'7220551'
p1055
sI1055
S'6360976'
p1056
sI1056
S'102213'
p1057
sI1057
S'2723005'
p1058
sI1058
S'7376669'
p1059
sI1059
S'8424583'
p1060
sI1060
S'1281140'
p1061
sI1061
S'8195086'
p1062
sI1062
S'3672198'
p1063
sI1063
S'4950638'
p1064
sI1064
S'4295025'
p1065
sI1065
S'8390580'
p1066
sI1066
S'218567'
p1067
sI1067
S'33180'
p1068
sI1068
S'3868122'
p1069
sI1069
S'4588328'
p1070
sI1070
S'8956615'
p1071
sI1071
S'5931093'
p1072
sI1072
S'884770'
p1073
sI1073
S'6422880'
p1074
sI1074
S'567239'
p1075
sI1075
S'7807992'
p1076
sI1076
S'8595304'
p1077
sI1077
S'207980'
p1078
sI1078
S'2686955'
p1079
sI1079
S'623906'
p1080
sI1080
S'1106534'
p1081
sI1081
S'1434314'
p1082
sI1082
S'4416566'
p1083
sI1083
S'5478359'
p1084
sI1084
S'644948'
p1085
sI1085
S'4907924'
p1086
sI1086
S'1267206'
p1087
sI1087
S'283977'
p1088
sI1088
S'5272777'
p1089
sI1089
S'541588'
p1090
sI1090
S'6727254'
p1091
sI1091
S'5194720'
p1092
sI1092
S'4532551'
p1093
sI1093
S'2771128'
p1094
sI1094
S'515588'
p1095
sI1095
S'1001415'
p1096
sI1096
S'733191'
p1097
sI1097
S'7129539'
p1098
sI1098
S'24450'
p1099
sI1099
S'5325355'
p1100
sI1100
S'8700433'
p1101
sI1101
S'5204043'
p1102
sI1102
S'6523507'
p1103
sI1103
S'6289879'
p1104
sI1104
S'4776813'
p1105
sI1105
S'9105543'
p1106
sI1106
S'8446710'
p1107
sI1107
S'1438864'
p1108
sI1108
S'3744863'
p1109
sI1109
S'1803219'
p1110
sI1110
S'7956995'
p1111
sI1111
S'1083810'
p1112
sI1112
S'8776928'
p1113
sI1113
S'589676'
p1114
sI1114
S'5559133'
p1115
sI1115
S'8486422'
p1116
sI1116
S'7034114'
p1117
sI1117
S'898833'
p1118
sI1118
S'6090770'
p1119
sI1119
S'5317789'
p1120
sI1120
S'8005452'
p1121
sI1121
S'7092017'
p1122
sI1122
S'2155689'
p1123
sI1123
S'6424975'
p1124
sI1124
S'307837'
p1125
sI1125
S'8698379'
p1126
sI1126
S'2772438'
p1127
sI1127
S'3105361'
p1128
sI1128
S'8353031'
p1129
sI1129
S'5558933'
p1130
sI1130
S'4279446'
p1131
sI1131
S'770991'
p1132
sI1132
S'483544'
p1133
sI1133
S'1336973'
p1134
sI1134
S'7982082'
p1135
sI1135
S'8616598'
p1136
sI1136
S'6923348'
p1137
sI1137
S'6677173'
p1138
sI1138
S'1745187'
p1139
sI1139
S'6870420'
p1140
sI1140
S'2967728'
p1141
sI1141
S'5749181'
p1142
sI1142
S'3630122'
p1143
sI1143
S'2367596'
p1144
sI1144
S'6677011'
p1145
sI1145
S'668159'
p1146
sI1146
S'1031899'
p1147
sI1147
S'4145563'
p1148
sI1148
S'650082'
p1149
sI1149
S'7679393'
p1150
sI1150
S'108535'
p1151
sI1151
S'4531215'
p1152
sI1152
S'1030703'
p1153
sI1153
S'1709713'
p1154
sI1154
S'1598170'
p1155
sI1155
S'4643186'
p1156
sI1156
S'1589073'
p1157
sI1157
S'3506164'
p1158
sI1158
S'7012313'
p1159
sI1159
S'5193689'
p1160
sI1160
S'7437151'
p1161
sI1161
S'4198073'
p1162
sI1162
S'3636803'
p1163
sI1163
S'5457815'
p1164
sI1164
S'2947746'
p1165
sI1165
S'3799272'
p1166
sI1166
S'489665'
p1167
sI1167
S'2804167'
p1168
sI1168
S'30738'
p1169
sI1169
S'5371888'
p1170
sI1170
S'259997'
p1171
sI1171
S'8781453'
p1172
sI1172
S'129515'
p1173
sI1173
S'6748645'
p1174
sI1174
S'1177310'
p1175
sI1175
S'30165'
p1176
sI1176
S'8484211'
p1177
sI1177
S'1209638'
p1178
sI1178
S'488297'
p1179
sI1179
S'2061134'
p1180
sI1180
S'193292'
p1181
sI1181
S'2178503'
p1182
sI1182
S'2486953'
p1183
sI1183
S'946733'
p1184
sI1184
S'7369846'
p1185
sI1185
S'8482762'
p1186
sI1186
S'585225'
p1187
sI1187
S'7368212'
p1188
sI1188
S'1937939'
p1189
sI1189
S'8480722'
p1190
sI1190
S'8187584'
p1191
sI1191
S'6287022'
p1192
sI1192
S'4663132'
p1193
sI1193
S'5499928'
p1194
sI1194
S'4663060'
p1195
sI1195
S'7563598'
p1196
sI1196
S'26843'
p1197
sI1197
S'8743823'
p1198
sI1198
S'1763420'
p1199
sI1199
S'4056914'
p1200
sI1200
S'6764924'
p1201
sI1201
S'3685261'
p1202
sI1202
S'59344'
p1203
sI1203
S'6290415'
p1204
sI1204
S'2876562'
p1205
sI1205
S'8053292'
p1206
sI1206
S'4121114'
p1207
sI1207
S'6940228'
p1208
sI1208
S'1992217'
p1209
sI1209
S'8085920'
p1210
sI1210
S'2482884'
p1211
sI1211
S'4874052'
p1212
sI1212
S'4984759'
p1213
sI1213
S'3319023'
p1214
sI1214
S'515430'
p1215
sI1215
S'6885422'
p1216
sI1216
S'4250927'
p1217
sI1217
S'6151342'
p1218
sI1218
S'9067632'
p1219
sI1219
S'4678599'
p1220
sI1220
S'284117'
p1221
sI1221
S'5454228'
p1222
sI1222
S'350391'
p1223
sI1223
S'2021458'
p1224
sI1224
S'4315205'
p1225
sI1225
S'4322718'
p1226
sI1226
S'8147820'
p1227
sI1227
S'8900220'
p1228
sI1228
S'87640'
p1229
sI1229
S'3630011'
p1230
sI1230
S'1494771'
p1231
sI1231
S'5297754'
p1232
sI1232
S'1516321'
p1233
sI1233
S'8869066'
p1234
sI1234
S'413663'
p1235
sI1235
S'1898486'
p1236
sI1236
S'2935856'
p1237
sI1237
S'2345981'
p1238
sI1238
S'8014841'
p1239
sI1239
S'3449451'
p1240
sI1240
S'1133445'
p1241
sI1241
S'5229363'
p1242
sI1242
S'7161543'
p1243
sI1243
S'8964795'
p1244
sI1244
S'4311670'
p1245
sI1245
S'1302020'
p1246
sI1246
S'2703266'
p1247
sI1247
S'4572480'
p1248
sI1248
S'822127'
p1249
sI1249
S'1721200'
p1250
sI1250
S'2474857'
p1251
sI1251
S'6800168'
p1252
sI1252
S'8995495'
p1253
sI1253
S'8964884'
p1254
sI1254
S'3230459'
p1255
sI1255
S'2474393'
p1256
sI1256
S'6505426'
p1257
sI1257
S'6348742'
p1258
sI1258
S'3554396'
p1259
sI1259
S'1781698'
p1260
sI1260
S'8565766'
p1261
sI1261
S'3325741'
p1262
sI1262
S'6326769'
p1263
sI1263
S'5094146'
p1264
sI1264
S'8994145'
p1265
sI1265
S'6765817'
p1266
sI1266
S'1203849'
p1267
sI1267
S'2112336'
p1268
sI1268
S'7026287'
p1269
sI1269
S'472470'
p1270
sI1270
S'3563261'
p1271
sI1271
S'6437264'
p1272
sI1272
S'2612912'
p1273
sI1273
S'702461'
p1274
sI1274
S'8467797'
p1275
sI1275
S'1815551'
p1276
sI1276
S'1378703'
p1277
sI1277
S'1717077'
p1278
sI1278
S'1979565'
p1279
sI1279
S'8269523'
p1280
sI1280
S'668373'
p1281
sI1281
S'6238514'
p1282
sI1282
S'5806013'
p1283
sI1283
S'4730653'
p1284
sI1284
S'4501272'
p1285
sI1285
S'7973885'
p1286
sI1286
S'6335352'
p1287
sI1287
S'43732'
p1288
sI1288
S'5286594'
p1289
sI1289
S'8991179'
p1290
sI1290
S'666620'
p1291
sI1291
S'6957662'
p1292
sI1292
S'602535'
p1293
sI1293
S'1080933'
p1294
sI1294
S'8756651'
p1295
sI1295
S'631635'
p1296
sI1296
S'1385823'
p1297
sI1297
S'7939396'
p1298
sI1298
S'5742970'
p1299
sI1299
S'5632275'
p1300
sI1300
S'1975811'
p1301
sI1301
S'301991'
p1302
sI1302
S'1110001'
p1303
sI1303
S'8134772'
p1304
sI1304
S'8035001'
p1305
sI1305
S'6331695'
p1306
sI1306
S'8592609'
p1307
sI1307
S'1612702'
p1308
sI1308
S'301994'
p1309
sI1309
S'6248937'
p1310
sI1310
S'6953447'
p1311
sI1311
S'2170688'
p1312
sI1312
S'728585'
p1313
sI1313
S'4463165'
p1314
sI1314
S'8101619'
p1315
sI1315
S'2692850'
p1316
sI1316
S'4463263'
p1317
sI1317
S'5806279'
p1318
sI1318
S'9137672'
p1319
sI1319
S'890902'
p1320
sI1320
S'3957762'
p1321
sI1321
S'5478400'
p1322
sI1322
S'4462326'
p1323
sI1323
S'1906323'
p1324
sI1324
S'1210748'
p1325
sI1325
S'39174'
p1326
sI1326
S'5247898'
p1327
sI1327
S'6427524'
p1328
sI1328
S'6273745'
p1329
sI1329
S'5345792'
p1330
sI1330
S'594387'
p1331
sI1331
S'1479153'
p1332
sI1332
S'1806260'
p1333
sI1333
S'8392276'
p1334
sI1334
S'5672388'
p1335
sI1335
S'6425800'
p1336
sI1336
S'1805489'
p1337
sI1337
S'4263821'
p1338
sI1338
S'1740537'
p1339
sI1339
S'231752'
p1340
sI1340
S'431974'
p1341
sI1341
S'5213312'
p1342
sI1342
S'8392095'
p1343
sI1343
S'658833'
p1344
sI1344
S'9214120'
p1345
sI1345
S'737852'
p1346
sI1346
S'2164917'
p1347
sI1347
S'8128524'
p1348
sI1348
S'584677'
p1349
sI1349
S'5376059'
p1350
sI1350
S'9079347'
p1351
sI1351
S'4949779'
p1352
sI1352
S'2918124'
p1353
sI1353
S'6522477'
p1354
sI1354
S'1967234'
p1355
sI1355
S'6784032'
p1356
sI1356
S'1573742'
p1357
sI1357
S'2578363'
p1358
sI1358
S'4359626'
p1359
sI1359
S'7439772'
p1360
sI1360
S'8205254'
p1361
sI1361
S'2950437'
p1362
sI1362
S'7602382'
p1363
sI1363
S'4653332'
p1364
sI1364
S'6864929'
p1365
sI1365
S'5429055'
p1366
sI1366
S'9139092'
p1367
sI1367
S'5852204'
p1368
sI1368
S'245359'
p1369
sI1369
S'8117667'
p1370
sI1370
S'2007569'
p1371
sI1371
S'6464808'
p1372
sI1372
S'4663928'
p1373
sI1373
S'9150423'
p1374
sI1374
S'6870555'
p1375
sI1375
S'713877'
p1376
sI1376
S'3721927'
p1377
sI1377
S'3720392'
p1378
sI1378
S'1197716'
p1379
sI1379
S'6866584'
p1380
sI1380
S'4105958'
p1381
sI1381
S'7401158'
p1382
sI1382
S'7764070'
p1383
sI1383
S'8839978'
p1384
sI1384
S'1162111'
p1385
sI1385
S'4873971'
p1386
sI1386
S'5696895'
p1387
sI1387
S'218481'
p1388
sI1388
S'8629009'
p1389
sI1389
S'3801909'
p1390
sI1390
S'8686391'
p1391
sI1391
S'8817059'
p1392
sI1392
S'8173152'
p1393
sI1393
S'7988071'
p1394
sI1394
S'124011'
p1395
sI1395
S'8144115'
p1396
sI1396
S'3828452'
p1397
sI1397
S'1240935'
p1398
sI1398
S'8068616'
p1399
sI1399
S'4787512'
p1400
sI1400
S'3505440'
p1401
sI1401
S'4986694'
p1402
sI1402
S'2067936'
p1403
sI1403
S'2970867'
p1404
sI1404
S'3377369'
p1405
sI1405
S'1392183'
p1406
sI1406
S'2089479'
p1407
sI1407
S'4143378'
p1408
sI1408
S'258717'
p1409
sI1409
S'1382765'
p1410
sI1410
S'1037198'
p1411
sI1411
S'3702177'
p1412
sI1412
S'1932019'
p1413
sI1413
S'8154004'
p1414
sI1414
S'4979396'
p1415
sI1415
S'259856'
p1416
sI1416
S'7009809'
p1417
sI1417
S'1661720'
p1418
sI1418
S'1535514'
p1419
sI1419
S'4208359'
p1420
sI1420
S'749756'
p1421
sI1421
S'1561116'
p1422
sI1422
S'8613580'
p1423
sI1423
S'6121614'
p1424
sI1424
S'196526'
p1425
sI1425
S'519083'
p1426
sI1426
S'878935'
p1427
sI1427
S'7134576'
p1428
sI1428
S'4236563'
p1429
sI1429
S'1957087'
p1430
sI1430
S'6573762'
p1431
sI1431
S'1472743'
p1432
sI1432
S'971449'
p1433
sI1433
S'6935174'
p1434
sI1434
S'6902984'
p1435
sI1435
S'349375'
p1436
sI1436
S'7349102'
p1437
sI1437
S'741178'
p1438
sI1438
S'3383945'
p1439
sI1439
S'6573439'
p1440
sI1440
S'259919'
p1441
sI1441
S'8394682'
p1442
sI1442
S'8742770'
p1443
sI1443
S'6365956'
p1444
sI1444
S'1296106'
p1445
sI1445
S'8570043'
p1446
sI1446
S'5948549'
p1447
sI1447
S'833149'
p1448
sI1448
S'2343901'
p1449
sI1449
S'9051991'
p1450
sI1450
S'8763915'
p1451
sI1451
S'3258084'
p1452
sI1452
S'198937'
p1453
sI1453
S'3749539'
p1454
sI1454
S'6600319'
p1455
sI1455
S'6993846'
p1456
sI1456
S'3584900'
p1457
sI1457
S'7743792'
p1458
sI1458
S'2372569'
p1459
sI1459
S'8500048'
p1460
sI1460
S'4959376'
p1461
sI1461
S'8825958'
p1462
sI1462
S'2017079'
p1463
sI1463
S'5299434'
p1464
sI1464
S'8595936'
p1465
sI1465
S'6072767'
p1466
sI1466
S'2238488'
p1467
sI1467
S'136140'
p1468
sI1468
S'4236559'
p1469
sI1469
S'9151654'
p1470
sI1470
S'6004953'
p1471
sI1471
S'8069279'
p1472
sI1472
S'4136297'
p1473
sI1473
S'6658545'
p1474
sI1474
S'71554'
p1475
sI1475
S'6166219'
p1476
sI1476
S'4232730'
p1477
sI1477
S'6363639'
p1478
sI1478
S'791034'
p1479
sI1479
S'266727'
p1480
sI1480
S'3808193'
p1481
sI1481
S'7639246'
p1482
sI1482
S'8883928'
p1483
sI1483
S'66664'
p1484
sI1484
S'3705559'
p1485
sI1485
S'232060'
p1486
sI1486
S'4429475'
p1487
sI1487
S'1017799'
p1488
sI1488
S'6272183'
p1489
sI1489
S'819863'
p1490
sI1490
S'3506434'
p1491
sI1491
S'3801934'
p1492
sI1492
S'4199897'
p1493
sI1493
S'5491995'
p1494
sI1494
S'3339018'
p1495
sI1495
S'2957148'
p1496
sI1496
S'6416247'
p1497
sI1497
S'2508995'
p1498
sI1498
S'5811151'
p1499
sI1499
S'7604679'
p1500
sI1500
S'2560299'
p1501
sI1501
S'2482632'
p1502
sI1502
S'7069881'
p1503
sI1503
S'2828527'
p1504
sI1504
S'1489036'
p1505
sI1505
S'3157463'
p1506
sI1506
S'3456010'
p1507
sI1507
S'6378613'
p1508
sI1508
S'7462923'
p1509
sI1509
S'7462937'
p1510
sI1510
S'7462873'
p1511
sI1511
S'7462930'
p1512
sI1512
S'7462929'
p1513
sI1513
S'7462935'
p1514
sI1514
S'585326'
p1515
sI1515
S'7462940'
p1516
sI1516
S'1100287'
p1517
sI1517
S'767788'
p1518
sI1518
S'7583867'
p1519
sI1519
S'8613037'
p1520
sI1520
S'8939085'
p1521
sI1521
S'8152867'
p1522
sI1522
S'1183521'
p1523
sI1523
S'162934'
p1524
sI1524
S'2396847'
p1525
sI1525
S'8207665'
p1526
sI1526
S'3986219'
p1527
sI1527
S'2747068'
p1528
sI1528
S'2115503'
p1529
sI1529
S'7951057'
p1530
sI1530
S'3793678'
p1531
sI1531
S'2326165'
p1532
sI1532
S'8781215'
p1533
sI1533
S'6795093'
p1534
sI1534
S'7620172'
p1535
sI1535
S'7762226'
p1536
sI1536
S'7534729'
p1537
sI1537
S'3821592'
p1538
sI1538
S'4002480'
p1539
sI1539
S'780002'
p1540
sI1540
S'7650273'
p1541
sI1541
S'3323268'
p1542
sI1542
S'7452332'
p1543
sI1543
S'6213273'
p1544
sI1544
S'8688607'
p1545
sI1545
S'3993928'
p1546
sI1546
S'589516'
p1547
sI1547
S'2445126'
p1548
sI1548
S'2254431'
p1549
sI1549
S'1104912'
p1550
sI1550
S'6083512'
p1551
sI1551
S'6401154'
p1552
sI1552
S'5890033'
p1553
sI1553
S'83553'
p1554
sI1554
S'2088800'
p1555
sI1555
S'5508627'
p1556
sI1556
S'8671896'
p1557
sI1557
S'2965491'
p1558
sI1558
S'8617216'
p1559
sI1559
S'1097535'
p1560
sI1560
S'8224399'
p1561
sI1561
S'2161686'
p1562
sI1562
S'6007099'
p1563
sI1563
S'2683857'
p1564
sI1564
S'2802418'
p1565
sI1565
S'2683409'
p1566
sI1566
S'8352275'
p1567
sI1567
S'5075470'
p1568
sI1568
S'62566'
p1569
sI1569
S'6222895'
p1570
sI1570
S'3731058'
p1571
sI1571
S'1077444'
p1572
sI1572
S'9026806'
p1573
sI1573
S'7204241'
p1574
sI1574
S'7760494'
p1575
sI1575
S'8715362'
p1576
sI1576
S'7497448'
p1577
sI1577
S'2483504'
p1578
sI1578
S'494111'
p1579
sI1579
S'1498953'
p1580
sI1580
S'7462925'
p1581
sI1581
S'7462926'
p1582
sI1582
S'7823272'
p1583
sI1583
S'8741584'
p1584
sI1584
S'1931925'
p1585
sI1585
S'1183654'
p1586
sI1586
S'254028'
p1587
sI1587
S'55632'
p1588
sI1588
S'6740137'
p1589
sI1589
S'545685'
p1590
sI1590
S'7092292'
p1591
sI1591
S'1494909'
p1592
sI1592
S'9025498'
p1593
sI1593
S'4804120'
p1594
sI1594
S'4115215'
p1595
sI1595
S'1755158'
p1596
sI1596
S'8013810'
p1597
sI1597
S'7292853'
p1598
sI1598
S'6462309'
p1599
sI1599
S'7621182'
p1600
sI1600
S'1427660'
p1601
sI1601
S'4638266'
p1602
sI1602
S'4539937'
p1603
sI1603
S'1556680'
p1604
sI1604
S'1482697'
p1605
sI1605
S'6832967'
p1606
sI1606
S'8799215'
p1607
sI1607
S'6798309'
p1608
sI1608
S'7675718'
p1609
sI1609
S'7650100'
p1610
sI1610
S'9026925'
p1611
sI1611
S'7222704'
p1612
sI1612
S'8305102'
p1613
sI1613
S'6404232'
p1614
sI1614
S'1665516'
p1615
sI1615
S'8992689'
p1616
sI1616
S'5682184'
p1617
sI1617
S'242614'
p1618
sI1618
S'570318'
p1619
sI1619
S'3748567'
p1620
sI1620
S'4829585'
p1621
sI1621
S'208727'
p1622
sI1622
S'7973978'
p1623
sI1623
S'8013603'
p1624
sI1624
S'5548977'
p1625
sI1625
S'8628215'
p1626
sI1626
S'7611188'
p1627
sI1627
S'6399791'
p1628
sI1628
S'7010791'
p1629
sI1629
S'9119210'
p1630
sI1630
S'7643927'
p1631
sI1631
S'8167459'
p1632
sI1632
S'171193'
p1633
sI1633
S'6660041'
p1634
sI1634
S'1346713'
p1635
sI1635
S'3481025'
p1636
sI1636
S'4023249'
p1637
sI1637
S'6626013'
p1638
sI1638
S'2629294'
p1639
sI1639
S'170099'
p1640
sI1640
S'3774435'
p1641
sI1641
S'7935826'
p1642
sI1642
S'2397852'
p1643
sI1643
S'431632'
p1644
sI1644
S'3773951'
p1645
sI1645
S'2331166'
p1646
sI1646
S'6887234'
p1647
sI1647
S'7745042'
p1648
sI1648
S'6885831'
p1649
sI1649
S'6885520'
p1650
sI1650
S'5509761'
p1651
sI1651
S'1478708'
p1652
sI1652
S'8382187'
p1653
sI1653
S'3506784'
p1654
sI1654
S'7714473'
p1655
sI1655
S'7277875'
p1656
sI1656
S'142177'
p1657
sI1657
S'4000720'
p1658
sI1658
S'437385'
p1659
sI1659
S'9112275'
p1660
sI1660
S'8456859'
p1661
sI1661
S'918572'
p1662
sI1662
S'66188'
p1663
sI1663
S'8455607'
p1664
sI1664
S'669972'
p1665
sI1665
S'9110032'
p1666
sI1666
S'7263625'
p1667
sI1667
S'8684263'
p1668
sI1668
S'5196070'
p1669
sI1669
S'2753563'
p1670
sI1670
S'845501'
p1671
sI1671
S'7173229'
p1672
sI1672
S'6377520'
p1673
sI1673
S'5154242'
p1674
sI1674
S'5976364'
p1675
sI1675
S'9010765'
p1676
sI1676
S'4880695'
p1677
sI1677
S'8942765'
p1678
sI1678
S'848578'
p1679
sI1679
S'845480'
p1680
sI1680
S'2483653'
p1681
sI1681
S'6317470'
p1682
sI1682
S'7199664'
p1683
sI1683
S'5195922'
p1684
sI1684
S'5196233'
p1685
sI1685
S'5750696'
p1686
sI1686
S'6601749'
p1687
sI1687
S'3649988'
p1688
sI1688
S'8425059'
p1689
sI1689
S'6751279'
p1690
sI1690
S'1368789'
p1691
sI1691
S'5853587'
p1692
sI1692
S'9138943'
p1693
sI1693
S'8305819'
p1694
sI1694
S'6728870'
p1695
sI1695
S'444616'
p1696
sI1696
S'1629577'
p1697
sI1697
S'8202603'
p1698
sI1698
S'5500218'
p1699
sI1699
S'2926612'
p1700
sI1700
S'7075415'
p1701
sI1701
S'457986'
p1702
sI1702
S'1223896'
p1703
sI1703
S'2056543'
p1704
sI1704
S'6970359'
p1705
sI1705
S'6201747'
p1706
sI1706
S'7066823'
p1707
sI1707
S'7534836'
p1708
sI1708
S'8308710'
p1709
sI1709
S'687430'
p1710
sI1710
S'6913940'
p1711
sI1711
S'1998111'
p1712
sI1712
S'8353691'
p1713
sI1713
S'292723'
p1714
sI1714
S'4617719'
p1715
sI1715
S'4650391'
p1716
sI1716
S'7828473'
p1717
sI1717
S'2942149'
p1718
sI1718
S'4286391'
p1719
sI1719
S'5978964'
p1720
sI1720
S'351978'
p1721
sI1721
S'1006259'
p1722
sI1722
S'152517'
p1723
sI1723
S'8016594'
p1724
sI1724
S'4968987'
p1725
sI1725
S'5553375'
p1726
sI1726
S'1117098'
p1727
sI1727
S'968046'
p1728
sI1728
S'509802'
p1729
sI1729
S'6145180'
p1730
sI1730
S'6518261'
p1731
sI1731
S'4276830'
p1732
sI1732
S'4768678'
p1733
sI1733
S'5749839'
p1734
sI1734
S'6045135'
p1735
sI1735
S'81256'
p1736
sI1736
S'3262667'
p1737
sI1737
S'2701658'
p1738
sI1738
S'242571'
p1739
sI1739
S'6304877'
p1740
sI1740
S'77941'
p1741
sI1741
S'7483031'
p1742
sI1742
S'75423'
p1743
sI1743
S'8760326'
p1744
sI1744
S'7023981'
p1745
sI1745
S'8583501'
p1746
sI1746
S'6629798'
p1747
sI1747
S'6170306'
p1748
sI1748
S'75422'
p1749
sI1749
S'74758'
p1750
sI1750
S'3718865'
p1751
sI1751
S'9065397'
p1752
sI1752
S'9184711'
p1753
sI1753
S'533193'
p1754
sI1754
S'794626'
p1755
sI1755
S'7281346'
p1756
sI1756
S'71112'
p1757
sI1757
S'8033732'
p1758
sI1758
S'9049112'
p1759
sI1759
S'4494303'
p1760
sI1760
S'4102049'
p1761
sI1761
S'2496086'
p1762
sI1762
S'7902108'
p1763
sI1763
S'9033827'
p1764
sI1764
S'486194'
p1765
sI1765
S'69553'
p1766
sI1766
S'69549'
p1767
sI1767
S'6133699'
p1768
sI1768
S'8391889'
p1769
sI1769
S'6655172'
p1770
sI1770
S'5606513'
p1771
sI1771
S'7145778'
p1772
sI1772
S'6785281'
p1773
sI1773
S'3404981'
p1774
sI1774
S'2461006'
p1775
sI1775
S'1672896'
p1776
sI1776
S'4654218'
p1777
sI1777
S'3378019'
p1778
sI1778
S'7341076'
p1779
sI1779
S'4719908'
p1780
sI1780
S'4392470'
p1781
sI1781
S'8553341'
p1782
sI1782
S'8487735'
p1783
sI1783
S'4295573'
p1784
sI1784
S'9186095'
p1785
sI1785
S'5154367'
p1786
sI1786
S'3732270'
p1787
sI1787
S'6568001'
p1788
sI1788
S'5431540'
p1789
sI1789
S'8739097'
p1790
sI1790
S'4027939'
p1791
sI1791
S'4204610'
p1792
sI1792
S'1881471'
p1793
sI1793
S'5581254'
p1794
sI1794
S'4874904'
p1795
sI1795
S'6765644'
p1796
sI1796
S'8207632'
p1797
sI1797
S'5229280'
p1798
sI1798
S'8072329'
p1799
sI1799
S'8743379'
p1800
sI1800
S'9052814'
p1801
sI1801
S'9189703'
p1802
sI1802
S'4026354'
p1803
sI1803
S'6705522'
p1804
sI1804
S'7790186'
p1805
sI1805
S'5154227'
p1806
sI1806
S'7784030'
p1807
sI1807
S'8341128'
p1808
sI1808
S'7762892'
p1809
sI1809
S'7839934'
p1810
sI1810
S'5807705'
p1811
sI1811
S'1132922'
p1812
sI1812
S'7793619'
p1813
sI1813
S'7793616'
p1814
sI1814
S'7826630'
p1815
sI1815
S'1097793'
p1816
sI1816
S'5068486'
p1817
sI1817
S'7073115'
p1818
sI1818
S'9075976'
p1819
sI1819
S'7240890'
p1820
sI1820
S'1881487'
p1821
sI1821
S'3439261'
p1822
sI1822
S'6716417'
p1823
sI1823
S'3201323'
p1824
sI1824
S'7534891'
p1825
sI1825
S'7075352'
p1826
sI1826
S'7776358'
p1827
sI1827
S'3009990'
p1828
sI1828
S'7826621'
p1829
sI1829
S'7776303'
p1830
sI1830
S'7793612'
p1831
sI1831
S'7269276'
p1832
sI1832
S'6153831'
p1833
sI1833
S'6120540'
p1834
sI1834
S'2908858'
p1835
sI1835
S'8150868'
p1836
sI1836
S'4251101'
p1837
sI1837
S'8758790'
p1838
sI1838
S'9199909'
p1839
sI1839
S'943060'
p1840
sI1840
S'7921251'
p1841
sI1841
S'7092673'
p1842
sI1842
S'7034157'
p1843
sI1843
S'3394579'
p1844
sI1844
S'773370'
p1845
sI1845
S'8506520'
p1846
sI1846
S'8342045'
p1847
sI1847
S'1881506'
p1848
sI1848
S'3326535'
p1849
sI1849
S'7839715'
p1850
sI1850
S'3257979'
p1851
sI1851
S'4372435'
p1852
sI1852
S'8762307'
p1853
sI1853
S'6303804'
p1854
sI1854
S'7745558'
p1855
sI1855
S'3354203'
p1856
sI1856
S'8269701'
p1857
sI1857
S'9186091'
p1858
sI1858
S'9186090'
p1859
sI1859
S'9186085'
p1860
sI1860
S'9186083'
p1861
sI1861
S'7025250'
p1862
sI1862
S'5319588'
p1863
sI1863
S'7776384'
p1864
sI1864
S'7697503'
p1865
sI1865
S'7839937'
p1866
sI1866
S'4923519'
p1867
sI1867
S'238204'
p1868
sI1868
S'7839717'
p1869
sI1869
S'7117778'
p1870
sI1870
S'465723'
p1871
sI1871
S'2465543'
p1872
sI1872
S'2104978'
p1873
sI1873
S'300589'
p1874
sI1874
S'3075471'
p1875
sI1875
S'1412609'
p1876
sI1876
S'5232276'
p1877
sI1877
S'3115609'
p1878
sI1878
S'4622661'
p1879
sI1879
S'7035672'
p1880
sI1880
S'4359495'
p1881
sI1881
S'7955880'
p1882
sI1882
S'8174659'
p1883
sI1883
S'7229467'
p1884
sI1884
S'8255567'
p1885
sI1885
S'1925714'
p1886
sI1886
S'4502889'
p1887
sI1887
S'5944989'
p1888
sI1888
S'5945396'
p1889
sI1889
S'5945812'
p1890
sI1890
S'785901'
p1891
sI1891
S'9154103'
p1892
sI1892
S'9154250'
p1893
sI1893
S'548844'
p1894
sI1894
S'8208091'
p1895
sI1895
S'8937528'
p1896
sI1896
S'934102'
p1897
sI1897
S'6481703'
p1898
sI1898
S'8907630'
p1899
sI1899
S'2498316'
p1900
sI1900
S'8576834'
p1901
sI1901
S'4317362'
p1902
sI1902
S'734871'
p1903
sI1903
S'1488410'
p1904
sI1904
S'8407352'
p1905
sI1905
S'5205599'
p1906
sI1906
S'5443678'
p1907
sI1907
S'666434'
p1908
sI1908
S'8073148'
p1909
sI1909
S'1056844'
p1910
sI1910
S'7067681'
p1911
sI1911
S'229240'
p1912
sI1912
S'8596100'
p1913
sI1913
S'6586095'
p1914
sI1914
S'5209794'
p1915
sI1915
S'7789564'
p1916
sI1916
S'4417901'
p1917
sI1917
S'6290411'
p1918
sI1918
S'8147958'
p1919
sI1919
S'7632747'
p1920
sI1920
S'8344020'
p1921
sI1921
S'2314228'
p1922
sI1922
S'259622'
p1923
sI1923
S'1504149'
p1924
sI1924
S'8090660'
p1925
sI1925
S'7715861'
p1926
sI1926
S'4285673'
p1927
sI1927
S'255071'
p1928
sI1928
S'6742488'
p1929
sI1929
S'3005991'
p1930
sI1930
S'8380507'
p1931
sI1931
S'939601'
p1932
sI1932
S'1692011'
p1933
sI1933
S'8049748'
p1934
sI1934
S'8113770'
p1935
sI1935
S'6245666'
p1936
sI1936
S'8342838'
p1937
sI1937
S'280540'
p1938
sI1938
S'259621'
p1939
sI1939
S'1851435'
p1940
sI1940
S'7258538'
p1941
sI1941
S'8338986'
p1942
sI1942
S'1280597'
p1943
sI1943
S'2997780'
p1944
sI1944
S'867271'
p1945
sI1945
S'1783140'
p1946
sI1946
S'9154591'
p1947
sI1947
S'241235'
p1948
sI1948
S'830997'
p1949
sI1949
S'9153590'
p1950
sI1950
S'175090'
p1951
sI1951
S'6788356'
p1952
sI1952
S'1978669'
p1953
sI1953
S'4236298'
p1954
sI1954
S'696894'
p1955
sI1955
S'435389'
p1956
sI1956
S'8102196'
p1957
sI1957
S'6757412'
p1958
sI1958
S'138795'
p1959
sI1959
S'6145167'
p1960
sI1960
S'72444'
p1961
sI1961
S'1836165'
p1962
sI1962
S'4464347'
p1963
sI1963
S'4998039'
p1964
sI1964
S'8106221'
p1965
sI1965
S'70753'
p1966
sI1966
S'1349602'
p1967
sI1967
S'5510092'
p1968
sI1968
S'987495'
p1969
sI1969
S'7278792'
p1970
sI1970
S'2527340'
p1971
sI1971
S'1935557'
p1972
sI1972
S'8423877'
p1973
sI1973
S'8227470'
p1974
sI1974
S'6784288'
p1975
sI1975
S'2785857'
p1976
sI1976
S'8410536'
p1977
sI1977
S'4916065'
p1978
sI1978
S'786492'
p1979
sI1979
S'2804303'
p1980
sI1980
S'8165512'
p1981
sI1981
S'8342146'
p1982
sI1982
S'8372682'
p1983
sI1983
S'8227808'
p1984
sI1984
S'7368199'
p1985
sI1985
S'9173483'
p1986
sI1986
S'6020112'
p1987
sI1987
S'8170781'
p1988
sI1988
S'8327231'
p1989
sI1989
S'4377982'
p1990
sI1990
S'966714'
p1991
sI1991
S'4110997'
p1992
sI1992
S'7007759'
p1993
sI1993
S'5163082'
p1994
sI1994
S'7987178'
p1995
sI1995
S'6836813'
p1996
sI1996
S'2093695'
p1997
sI1997
S'6438627'
p1998
sI1998
S'9030129'
p1999
sI1999
S'4023585'
p2000
sI2000
S'6591338'
p2001
sI2001
S'1046482'
p2002
sI2002
S'409560'
p2003
sI2003
S'6715383'
p2004
sI2004
S'7763880'
p2005
sI2005
S'4519409'
p2006
sI2006
S'1326577'
p2007
sI2007
S'3896093'
p2008
sI2008
S'5173999'
p2009
sI2009
S'5172712'
p2010
sI2010
S'1860405'
p2011
sI2011
S'1826125'
p2012
sI2012
S'2350404'
p2013
sI2013
S'7068804'
p2014
sI2014
S'8444973'
p2015
sI2015
S'6412435'
p2016
sI2016
S'6869718'
p2017
sI2017
S'6246822'
p2018
sI2018
S'4182066'
p2019
sI2019
S'739482'
p2020
sI2020
S'6638320'
p2021
sI2021
S'7147485'
p2022
sI2022
S'4348890'
p2023
sI2023
S'966610'
p2024
sI2024
S'802559'
p2025
sI2025
S'4262533'
p2026
sI2026
S'3521744'
p2027
sI2027
S'8538504'
p2028
sI2028
S'5288416'
p2029
sI2029
S'2140005'
p2030
sI2030
S'8170004'
p2031
sI2031
S'3908146'
p2032
sI2032
S'6006218'
p2033
sI2033
S'1645724'
p2034
sI2034
S'2432104'
p2035
sI2035
S'892836'
p2036
sI2036
S'6716133'
p2037
sI2037
S'3743348'
p2038
sI2038
S'8384230'
p2039
sI2039
S'6985131'
p2040
sI2040
S'6991355'
p2041
sI2041
S'2594715'
p2042
sI2042
S'2594696'
p2043
sI2043
S'2331436'
p2044
sI2044
S'2119773'
p2045
sI2045
S'6328559'
p2046
sI2046
S'1836529'
p2047
sI2047
S'8170831'
p2048
sI2048
S'3411666'
p2049
sI2049
S'4558542'
p2050
sI2050
S'4380289'
p2051
sI2051
S'3441719'
p2052
sI2052
S'8227754'
p2053
sI2053
S'722203'
p2054
sI2054
S'9011597'
p2055
sI2055
S'4718969'
p2056
sI2056
S'8227699'
p2057
sI2057
S'7438432'
p2058
sI2058
S'1995487'
p2059
sI2059
S'909063'
p2060
sI2060
S'44323'
p2061
sI2061
S'7085722'
p2062
sI2062
S'8636315'
p2063
sI2063
S'8648085'
p2064
sI2064
S'8830757'
p2065
sI2065
S'3268637'
p2066
sI2066
S'774323'
p2067
sI2067
S'8869579'
p2068
sI2068
S'1005642'
p2069
sI2069
S'1493659'
p2070
sI2070
S'1193395'
p2071
sI2071
S'905399'
p2072
sI2072
S'7008961'
p2073
sI2073
S'9108109'
p2074
sI2074
S'8763620'
p2075
sI2075
S'4776359'
p2076
sI2076
S'7712636'
p2077
sI2077
S'6119683'
p2078
sI2078
S'1333047'
p2079
sI2079
S'7264532'
p2080
sI2080
S'6973024'
p2081
sI2081
S'664307'
p2082
sI2082
S'3883252'
p2083
sI2083
S'377569'
p2084
sI2084
S'3985721'
p2085
sI2085
S'6865225'
p2086
sI2086
S'3946571'
p2087
sI2087
S'4891068'
p2088
sI2088
S'8241372'
p2089
sI2089
S'6546389'
p2090
sI2090
S'2188976'
p2091
sI2091
S'1623609'
p2092
sI2092
S'8117914'
p2093
sI2093
S'3268419'
p2094
sI2094
S'4776936'
p2095
sI2095
S'6452005'
p2096
sI2096
S'7974287'
p2097
sI2097
S'883232'
p2098
sI2098
S'6378495'
p2099
sI2099
S'6365190'
p2100
sI2100
S'6437010'
p2101
sI2101
S'4559621'
p2102
sI2102
S'1223107'
p2103
sI2103
S'7369766'
p2104
sI2104
S'2277754'
p2105
sI2105
S'869490'
p2106
sI2106
S'8308630'
p2107
sI2107
S'6994459'
p2108
sI2108
S'8906244'
p2109
sI2109
S'7846943'
p2110
sI2110
S'6465835'
p2111
sI2111
S'6115182'
p2112
sI2112
S'7256961'
p2113
sI2113
S'8068323'
p2114
sI2114
S'8775884'
p2115
sI2115
S'4776948'
p2116
sI2116
S'2927781'
p2117
sI2117
S'684699'
p2118
sI2118
S'1931788'
p2119
sI2119
S'2502786'
p2120
sI2120
S'57676'
p2121
sI2121
S'5837881'
p2122
sI2122
S'3665379'
p2123
sI2123
S'8541515'
p2124
sI2124
S'7481897'
p2125
sI2125
S'1360703'
p2126
sI2126
S'7350876'
p2127
sI2127
S'8884504'
p2128
sI2128
S'4672165'
p2129
sI2129
S'1863106'
p2130
sI2130
S'4350576'
p2131
sI2131
S'1624611'
p2132
sI2132
S'9007919'
p2133
sI2133
S'6974923'
p2134
sI2134
S'1471146'
p2135
sI2135
S'3073304'
p2136
sI2136
S'9197404'
p2137
sI2137
S'1324467'
p2138
sI2138
S'8817182'
p2139
sI2139
S'8541616'
p2140
sI2140
S'4874862'
p2141
sI2141
S'214934'
p2142
sI2142
S'13702'
p2143
sI2143
S'8595828'
p2144
sI2144
S'867499'
p2145
sI2145
S'4735963'
p2146
sI2146
S'237541'
p2147
sI2147
S'519676'
p2148
sI2148
S'7328359'
p2149
sI2149
S'8118523'
p2150
sI2150
S'1307717'
p2151
sI2151
S'5038958'
p2152
sI2152
S'936209'
p2153
sI2153
S'276072'
p2154
sI2154
S'4744741'
p2155
sI2155
S'4109600'
p2156
sI2156
S'5785282'
p2157
sI2157
S'1038324'
p2158
sI2158
S'1462724'
p2159
sI2159
S'224579'
p2160
sI2160
S'2461604'
p2161
sI2161
S'1002358'
p2162
sI2162
S'2055729'
p2163
sI2163
S'878045'
p2164
sI2164
S'1055895'
p2165
sI2165
S'5458112'
p2166
sI2166
S'715469'
p2167
sI2167
S'1793493'
p2168
sI2168
S'4624467'
p2169
sI2169
S'115903'
p2170
sI2170
S'4726827'
p2171
sI2171
S'2513724'
p2172
sI2172
S'88172'
p2173
sI2173
S'859310'
p2174
sI2174
S'4277696'
p2175
sI2175
S'6895553'
p2176
sI2176
S'4436956'
p2177
sI2177
S'1695983'
p2178
sI2178
S'3194136'
p2179
sI2179
S'8506024'
p2180
sI2180
S'7583612'
p2181
sI2181
S'7330783'
p2182
sI2182
S'733008'
p2183
sI2183
S'2509799'
p2184
sI2184
S'7919891'
p2185
sI2185
S'6973090'
p2186
sI2186
S'7957205'
p2187
sI2187
S'200281'
p2188
sI2188
S'242004'
p2189
sI2189
S'7823062'
p2190
sI2190
S'1370123'
p2191
sI2191
S'5980039'
p2192
sI2192
S'1660173'
p2193
sI2193
S'4007665'
p2194
sI2194
S'2046807'
p2195
sI2195
S'5271583'
p2196
sI2196
S'1456941'
p2197
sI2197
S'7620774'
p2198
sI2198
S'4224941'
p2199
sI2199
S'8067049'
p2200
sI2200
S'7245070'
p2201
sI2201
S'47077'
p2202
sI2202
S'3727061'
p2203
sI2203
S'1370425'
p2204
sI2204
S'6836785'
p2205
sI2205
S'867555'
p2206
sI2206
S'8975105'
p2207
sI2207
S'8053481'
p2208
sI2208
S'4571468'
p2209
sI2209
S'4614763'
p2210
sI2210
S'866105'
p2211
sI2211
S'3238142'
p2212
sI2212
S'3073393'
p2213
sI2213
S'4754285'
p2214
sI2214
S'5783426'
p2215
sI2215
S'2008862'
p2216
sI2216
S'1961036'
p2217
sI2217
S'8312602'
p2218
sI2218
S'8612252'
p2219
sI2219
S'1190336'
p2220
sI2220
S'4603953'
p2221
sI2221
S'7578824'
p2222
sI2222
S'1733056'
p2223
sI2223
S'3482655'
p2224
sI2224
S'2516676'
p2225
sI2225
S'4701778'
p2226
sI2226
S'1060442'
p2227
sI2227
S'2664284'
p2228
sI2228
S'808771'
p2229
sI2229
S'357862'
p2230
sI2230
S'3895911'
p2231
sI2231
S'5858486'
p2232
sI2232
S'991765'
p2233
sI2233
S'4825217'
p2234
sI2234
S'108538'
p2235
sI2235
S'3494504'
p2236
sI2236
S'41399'
p2237
sI2237
S'1094207'
p2238
sI2238
S'765914'
p2239
sI2239
S'2020393'
p2240
sI2240
S'5007321'
p2241
sI2241
S'3384413'
p2242
sI2242
S'6514826'
p2243
sI2243
S'1997946'
p2244
sI2244
S'3953643'
p2245
sI2245
S'1045685'
p2246
sI2246
S'8703369'
p2247
sI2247
S'7956829'
p2248
sI2248
S'4527366'
p2249
sI2249
S'6911587'
p2250
sI2250
S'1160508'
p2251
sI2251
S'7025301'
p2252
sI2252
S'1994427'
p2253
sI2253
S'1487398'
p2254
sI2254
S'2569250'
p2255
sI2255
S'1494543'
p2256
sI2256
S'8270883'
p2257
sI2257
S'6544442'
p2258
sI2258
S'6481492'
p2259
sI2259
S'6959726'
p2260
sI2260
S'4729328'
p2261
sI2261
S'8114865'
p2262
sI2262
S'5536503'
p2263
sI2263
S'3174932'
p2264
sI2264
S'6801606'
p2265
sI2265
S'7853803'
p2266
sI2266
S'1187794'
p2267
sI2267
S'3258639'
p2268
sI2268
S'548765'
p2269
sI2269
S'744901'
p2270
sI2270
S'5991817'
p2271
sI2271
S'8670481'
p2272
sI2272
S'1550913'
p2273
sI2273
S'3263036'
p2274
sI2274
S'24849'
p2275
sI2275
S'1428620'
p2276
sI2276
S'1890853'
p2277
sI2277
S'2611820'
p2278
sI2278
S'1403992'
p2279
sI2279
S'6304566'
p2280
sI2280
S'6808852'
p2281
sI2281
S'2188561'
p2282
sI2282
S'2822970'
p2283
sI2283
S'6835097'
p2284
sI2284
S'942688'
p2285
sI2285
S'3870099'
p2286
sI2286
S'68239'
p2287
sI2287
S'3121457'
p2288
sI2288
S'5126076'
p2289
sI2289
S'1268515'
p2290
sI2290
S'2613882'
p2291
sI2291
S'560440'
p2292
sI2292
S'9119573'
p2293
sI2293
S'6413206'
p2294
sI2294
S'723916'
p2295
sI2295
S'2082479'
p2296
sI2296
S'6528265'
p2297
sI2297
S'2747404'
p2298
sI2298
S'7558236'
p2299
sI2299
S'8445334'
p2300
sI2300
S'1069340'
p2301
sI2301
S'4199015'
p2302
sI2302
S'4558566'
p2303
sI2303
S'5269037'
p2304
sI2304
S'1732863'
p2305
sI2305
S'8238744'
p2306
sI2306
S'2188453'
p2307
sI2307
S'12378'
p2308
sI2308
S'250465'
p2309
sI2309
S'1522339'
p2310
sI2310
S'2366857'
p2311
sI2311
S'5271048'
p2312
sI2312
S'8701367'
p2313
sI2313
S'8350289'
p2314
sI2314
S'3812931'
p2315
sI2315
S'5591544'
p2316
sI2316
S'1618751'
p2317
sI2317
S'2420807'
p2318
sI2318
S'544447'
p2319
sI2319
S'496246'
p2320
sI2320
S'7342996'
p2321
sI2321
S'4409583'
p2322
sI2322
S'1620411'
p2323
sI2323
S'8099186'
p2324
sI2324
S'1962559'
p2325
sI2325
S'480621'
p2326
sI2326
S'1655446'
p2327
sI2327
S'5385589'
p2328
sI2328
S'4556446'
p2329
sI2329
S'7932675'
p2330
sI2330
S'7436049'
p2331
sI2331
S'8027997'
p2332
sI2332
S'1316151'
p2333
sI2333
S'7176007'
p2334
sI2334
S'8126248'
p2335
sI2335
S'949612'
p2336
sI2336
S'6913294'
p2337
sI2337
S'8355076'
p2338
sI2338
S'5346515'
p2339
sI2339
S'8420533'
p2340
sI2340
S'7011472'
p2341
sI2341
S'1964917'
p2342
sI2342
S'1145706'
p2343
sI2343
S'4815643'
p2344
sI2344
S'2292432'
p2345
sI2345
S'3636904'
p2346
sI2346
S'7350897'
p2347
sI2347
S'7732900'
p2348
sI2348
S'8322701'
p2349
sI2349
S'2686530'
p2350
sI2350
S'622134'
p2351
sI2351
S'5340709'
p2352
sI2352
S'1211904'
p2353
sI2353
S'6389242'
p2354
sI2354
S'3079665'
p2355
sI2355
S'3294102'
p2356
sI2356
S'752297'
p2357
sI2357
S'2783899'
p2358
sI2358
S'7404181'
p2359
sI2359
S'7699095'
p2360
sI2360
S'2193638'
p2361
sI2361
S'817279'
p2362
sI2362
S'8868880'
p2363
sI2363
S'4275896'
p2364
sI2364
S'3176509'
p2365
sI2365
S'6387787'
p2366
sI2366
S'7896925'
p2367
sI2367
S'752607'
p2368
sI2368
S'4787844'
p2369
sI2369
S'1768413'
p2370
sI2370
S'238921'
p2371
sI2371
S'1898472'
p2372
sI2372
S'4323306'
p2373
sI2373
S'1421671'
p2374
sI2374
S'325478'
p2375
sI2375
S'5142378'
p2376
sI2376
S'522089'
p2377
sI2377
S'829185'
p2378
sI2378
S'5470034'
p2379
sI2379
S'6387526'
p2380
sI2380
S'63247'
p2381
sI2381
S'8721500'
p2382
sI2382
S'3930645'
p2383
sI2383
S'1571335'
p2384
sI2384
S'1931763'
p2385
sI2385
S'129388'
p2386
sI2386
S'3963192'
p2387
sI2387
S'4979002'
p2388
sI2388
S'7665365'
p2389
sI2389
S'185289'
p2390
sI2390
S'5299538'
p2391
sI2391
S'6092596'
p2392
sI2392
S'259647'
p2393
sI2393
S'980534'
p2394
sI2394
S'751077'
p2395
sI2395
S'6452714'
p2396
sI2396
S'7697839'
p2397
sI2397
S'2782602'
p2398
sI2398
S'7075202'
p2399
sI2399
S'423300'
p2400
sI2400
S'2291065'
p2401
sI2401
S'2848090'
p2402
sI2402
S'1930548'
p2403
sI2403
S'1468637'
p2404
sI2404
S'4748287'
p2405
sI2405
S'8221677'
p2406
sI2406
S'7172991'
p2407
sI2407
S'7369589'
p2408
sI2408
S'3667551'
p2409
sI2409
S'3863281'
p2410
sI2410
S'4485844'
p2411
sI2411
S'6713990'
p2412
sI2412
S'3207802'
p2413
sI2413
S'6784423'
p2414
sI2414
S'8974905'
p2415
sI2415
S'1733126'
p2416
sI2416
S'6911234'
p2417
sI2417
S'5272813'
p2418
sI2418
S'4392795'
p2419
sI2419
S'1864924'
p2420
sI2420
S'62651'
p2421
sI2421
S'4093072'
p2422
sI2422
S'6222235'
p2423
sI2423
S'8941601'
p2424
sI2424
S'5107706'
p2425
sI2425
S'225205'
p2426
sI2426
S'5468024'
p2427
sI2427
S'7825443'
p2428
sI2428
S'1863316'
p2429
sI2429
S'3534412'
p2430
sI2430
S'7859806'
p2431
sI2431
S'7728712'
p2432
sI2432
S'5355114'
p2433
sI2433
S'5730680'
p2434
sI2434
S'3117788'
p2435
sI2435
S'487499'
p2436
sI2436
S'1339473'
p2437
sI2437
S'5860833'
p2438
sI2438
S'3534282'
p2439
sI2439
S'2305401'
p2440
sI2440
S'7859616'
p2441
sI2441
S'8973469'
p2442
sI2442
S'27771'
p2443
sI2443
S'5861106'
p2444
sI2444
S'9025659'
p2445
sI2445
S'8088394'
p2446
sI2446
S'8210577'
p2447
sI2447
S'748256'
p2448
sI2448
S'715543'
p2449
sI2449
S'748222'
p2450
sI2450
S'5533015'
p2451
sI2451
S'9169512'
p2452
sI2452
S'4155983'
p2453
sI2453
S'1665339'
p2454
sI2454
S'8481021'
p2455
sI2455
S'3434710'
p2456
sI2456
S'4745420'
p2457
sI2457
S'6974377'
p2458
sI2458
S'8775823'
p2459
sI2459
S'9201794'
p2460
sI2460
S'5957671'
p2461
sI2461
S'943851'
p2462
sI2462
S'7596529'
p2463
sI2463
S'5007820'
p2464
sI2464
S'7563667'
p2465
sI2465
S'2188919'
p2466
sI2466
S'4777577'
p2467
sI2467
S'3073320'
p2468
sI2468
S'1107233'
p2469
sI2469
S'7955738'
p2470
sI2470
S'5760261'
p2471
sI2471
S'2319598'
p2472
sI2472
S'3105998'
p2473
sI2473
S'4777152'
p2474
sI2474
S'8114515'
p2475
sI2475
S'2058119'
p2476
sI2476
S'386966'
p2477
sI2477
S'648308'
p2478
sI2478
S'4711534'
p2479
sI2479
S'3139003'
p2480
sI2480
S'1892956'
p2481
sI2481
S'1499630'
p2482
sI2482
S'6678078'
p2483
sI2483
S'1271286'
p2484
sI2484
S'5989890'
p2485
sI2485
S'4777415'
p2486
sI2486
S'7857589'
p2487
sI2487
S'680288'
p2488
sI2488
S'9134439'
p2489
sI2489
S'4796336'
p2490
sI2490
S'1269738'
p2491
sI2491
S'385896'
p2492
sI2492
S'779109'
p2493
sI2493
S'5202735'
p2494
sI2494
S'3018867'
p2495
sI2495
S'8577678'
p2496
sI2496
S'7004802'
p2497
sI2497
S'4743804'
p2498
sI2498
S'5070636'
p2499
sI2499
S'810552'
p2500
sI2500
S'2186779'
p2501
sI2501
S'4119982'
p2502
sI2502
S'6086020'
p2503
sI2503
S'8239959'
p2504
sI2504
S'7823524'
p2505
sI2505
S'647303'
p2506
sI2506
S'7054695'
p2507
sI2507
S'286816'
p2508
sI2508
S'2023510'
p2509
sI2509
S'187730'
p2510
sI2510
S'1301798'
p2511
sI2511
S'2809024'
p2512
sI2512
S'2461848'
p2513
sI2513
S'384689'
p2514
sI2514
S'7036595'
p2515
sI2515
S'4480642'
p2516
sI2516
S'5958376'
p2517
sI2517
S'351821'
p2518
sI2518
S'1301550'
p2519
sI2519
S'23540'
p2520
sI2520
S'1104417'
p2521
sI2521
S'3594786'
p2522
sI2522
S'7068938'
p2523
sI2523
S'5299461'
p2524
sI2524
S'6020347'
p2525
sI2525
S'4045354'
p2526
sI2526
S'8017936'
p2527
sI2527
S'8017925'
p2528
sI2528
S'5560256'
p2529
sI2529
S'1988503'
p2530
sI2530
S'8017820'
p2531
sI2531
S'743255'
p2532
sI2532
S'4709284'
p2533
sI2533
S'1104738'
p2534
sI2534
S'4512583'
p2535
sI2535
S'7984679'
p2536
sI2536
S'1530142'
p2537
sI2537
S'350479'
p2538
sI2538
S'2283694'
p2539
sI2539
S'7461027'
p2540
sI2540
S'8443241'
p2541
sI2541
S'611658'
p2542
sI2542
S'7263548'
p2543
sI2543
S'8443167'
p2544
sI2544
S'1030352'
p2545
sI2545
S'5821380'
p2546
sI2546
S'9130888'
p2547
sI2547
S'8213336'
p2548
sI2548
S'1692470'
p2549
sI2549
S'8443575'
p2550
sI2550
S'8763529'
p2551
sI2551
S'840424'
p2552
sI2552
S'283791'
p2553
sI2553
S'7492644'
p2554
sI2554
S'3036198'
p2555
sI2555
S'5395489'
p2556
sI2556
S'8312922'
p2557
sI2557
S'5394755'
p2558
sI2558
S'9130137'
p2559
sI2559
S'6115330'
p2560
sI2560
S'937842'
p2561
sI2561
S'1200683'
p2562
sI2562
S'4903431'
p2563
sI2563
S'6901615'
p2564
sI2564
S'4831205'
p2565
sI2565
S'2182851'
p2566
sI2566
S'1101403'
p2567
sI2567
S'1429066'
p2568
sI2568
S'63405'
p2569
sI2569
S'5557750'
p2570
sI2570
S'5328994'
p2571
sI2571
S'8763407'
p2572
sI2572
S'6835664'
p2573
sI2573
S'4803510'
p2574
sI2574
S'8506292'
p2575
sI2575
S'6246035'
p2576
sI2576
S'150347'
p2577
sI2577
S'8702764'
p2578
sI2578
S'510733'
p2579
sI2579
S'2771688'
p2580
sI2580
S'1001583'
p2581
sI2581
S'8779650'
p2582
sI2582
S'8703213'
p2583
sI2583
S'7163038'
p2584
sI2584
S'4967476'
p2585
sI2585
S'6604799'
p2586
sI2586
S'8407031'
p2587
sI2587
S'6834158'
p2588
sI2588
S'2049672'
p2589
sI2589
S'7620217'
p2590
sI2590
S'5196399'
p2591
sI2591
S'8538605'
p2592
sI2592
S'8407508'
p2593
sI2593
S'2804163'
p2594
sI2594
S'9029941'
p2595
sI2595
S'8734202'
p2596
sI2596
S'3917296'
p2597
sI2597
S'3753360'
p2598
sI2598
S'6276478'
p2599
sI2599
S'9028989'
p2600
sI2600
S'3917164'
p2601
sI2601
S'6276438'
p2602
sI2602
S'4925354'
p2603
sI2603
S'6145184'
p2604
sI2604
S'4540214'
p2605
sI2605
S'4637928'
p2606
sI2606
S'8438983'
p2607
sI2607
S'804015'
p2608
sI2608
S'6177926'
p2609
sI2609
S'7217193'
p2610
sI2610
S'5816301'
p2611
sI2611
S'8699805'
p2612
sI2612
S'5160888'
p2613
sI2613
S'4701921'
p2614
sI2614
S'6504165'
p2615
sI2615
S'4701904'
p2616
sI2616
S'4701886'
p2617
sI2617
S'769734'
p2618
sI2618
S'8504147'
p2619
sI2619
S'5272911'
p2620
sI2620
S'3130090'
p2621
sI2621
S'279184'
p2622
sI2622
S'737864'
p2623
sI2623
S'6504905'
p2624
sI2624
S'5685700'
p2625
sI2625
S'3732225'
p2626
sI2626
S'7389611'
p2627
sI2627
S'4637003'
p2628
sI2628
S'803897'
p2629
sI2629
S'5850037'
p2630
sI2630
S'3030653'
p2631
sI2631
S'2816738'
p2632
sI2632
S'1490508'
p2633
sI2633
S'1359419'
p2634
sI2634
S'4701725'
p2635
sI2635
S'3096080'
p2636
sI2636
S'8207856'
p2637
sI2637
S'5589530'
p2638
sI2638
S'3391368'
p2639
sI2639
S'1260469'
p2640
sI2640
S'1204009'
p2641
sI2641
S'1699390'
p2642
sI2642
S'6143463'
p2643
sI2643
S'4668872'
p2644
sI2644
S'4014128'
p2645
sI2645
S'212297'
p2646
sI2646
S'4701473'
p2647
sI2647
S'1850032'
p2648
sI2648
S'8552775'
p2649
sI2649
S'6797900'
p2650
sI2650
S'4765557'
p2651
sI2651
S'964457'
p2652
sI2652
S'6272816'
p2653
sI2653
S'2078475'
p2654
sI2654
S'4241145'
p2655
sI2655
S'4475374'
p2656
sI2656
S'1619632'
p2657
sI2657
S'5420651'
p2658
sI2658
S'1062497'
p2659
sI2659
S'865873'
p2660
sI2660
S'734713'
p2661
sI2661
S'931313'
p2662
sI2662
S'7746463'
p2663
sI2663
S'406930'
p2664
sI2664
S'13705'
p2665
sI2665
S'3716504'
p2666
sI2666
S'6600081'
p2667
sI2667
S'8697987'
p2668
sI2668
S'8763366'
p2669
sI2669
S'210906'
p2670
sI2670
S'6042966'
p2671
sI2671
S'4175174'
p2672
sI2672
S'8533291'
p2673
sI2673
S'7025922'
p2674
sI2674
S'1291498'
p2675
sI2675
S'6108230'
p2676
sI2676
S'6042668'
p2677
sI2677
S'2665028'
p2678
sI2678
S'5945605'
p2679
sI2679
S'6306013'
p2680
sI2680
S'1587410'
p2681
sI2681
S'5617847'
p2682
sI2682
S'8534188'
p2683
sI2683
S'5420565'
p2684
sI2684
S'242661'
p2685
sI2685
S'78651'
p2686
sI2686
S'6107359'
p2687
sI2687
S'7844068'
p2688
sI2688
S'8401106'
p2689
sI2689
S'8703269'
p2690
sI2690
S'8630414'
p2691
sI2691
S'5943416'
p2692
sI2692
S'4469429'
p2693
sI2693
S'1388589'
p2694
sI2694
S'9154567'
p2695
sI2695
S'1388523'
p2696
sI2696
S'4796405'
p2697
sI2697
S'4796371'
p2698
sI2698
S'4796363'
p2699
sI2699
S'3026887'
p2700
sI2700
S'4796354'
p2701
sI2701
S'6866894'
p2702
sI2702
S'470686'
p2703
sI2703
S'44680'
p2704
sI2704
S'8760949'
p2705
sI2705
S'8597092'
p2706
sI2706
S'5649129'
p2707
sI2707
S'8106473'
p2708
sI2708
S'1356240'
p2709
sI2709
S'8270261'
p2710
sI2710
S'1126828'
p2711
sI2711
S'7844269'
p2712
sI2712
S'3842292'
p2713
sI2713
S'3944832'
p2714
sI2714
S'1356129'
p2715
sI2715
S'4393014'
p2716
sI2716
S'8368417'
p2717
sI2717
S'241211'
p2718
sI2718
S'1814061'
p2719
sI2719
S'1093088'
p2720
sI2720
S'2502127'
p2721
sI2721
S'8133882'
p2722
sI2722
S'2010572'
p2723
sI2723
S'470418'
p2724
sI2724
S'1256855'
p2725
sI2725
S'7351575'
p2726
sI2726
S'2927873'
p2727
sI2727
S'7679196'
p2728
sI2728
S'4533440'
p2729
sI2729
S'7679171'
p2730
sI2730
S'6926901'
p2731
sI2731
S'4796346'
p2732
sI2732
S'6795192'
p2733
sI2733
S'4796329'
p2734
sI2734
S'4796298'
p2735
sI2735
S'6336315'
p2736
sI2736
S'765739'
p2737
sI2737
S'3419211'
p2738
sI2738
S'3124105'
p2739
sI2739
S'6433637'
p2740
sI2740
S'3353377'
p2741
sI2741
S'1224036'
p2742
sI2742
S'4795154'
p2743
sI2743
S'43768'
p2744
sI2744
S'7711433'
p2745
sI2745
S'6466197'
p2746
sI2746
S'6662521'
p2747
sI2747
S'5253439'
p2748
sI2748
S'3877130'
p2749
sI2749
S'1584021'
p2750
sI2750
S'2304925'
p2751
sI2751
S'2730253'
p2752
sI2752
S'6007034'
p2753
sI2753
S'502009'
p2754
sI2754
S'895211'
p2755
sI2755
S'4106442'
p2756
sI2756
S'2074584'
p2757
sI2757
S'7940010'
p2758
sI2758
S'5252980'
p2759
sI2759
S'6236015'
p2760
sI2760
S'1124963'
p2761
sI2761
S'6924852'
p2762
sI2762
S'3385880'
p2763
sI2763
S'2468310'
p2764
sI2764
S'3320213'
p2765
sI2765
S'1156884'
p2766
sI2766
S'4037589'
p2767
sI2767
S'5482173'
p2768
sI2768
S'6005844'
p2769
sI2769
S'337983'
p2770
sI2770
S'10251'
p2771
sI2771
S'7546927'
p2772
sI2772
S'7775182'
p2773
sI2773
S'6221976'
p2774
sI2774
S'5874536'
p2775
sI2775
S'1909613'
p2776
sI2776
S'8739'
p2777
sI2777
S'8775'
p2778
sI2778
S'8167990'
p2779
sI2779
S'828764'
p2780
sI2780
S'1123601'
p2781
sI2781
S'7873804'
p2782
sI2782
S'5285120'
p2783
sI2783
S'3122326'
p2784
sI2784
S'1672615'
p2785
sI2785
S'6915497'
p2786
sI2786
S'762300'
p2787
sI2787
S'2629833'
p2788
sI2788
S'1417398'
p2789
sI2789
S'4038823'
p2790
sI2790
S'4531864'
p2791
sI2791
S'42572'
p2792
sI2792
S'7292499'
p2793
sI2793
S'4203960'
p2794
sI2794
S'664315'
p2795
sI2795
S'4236013'
p2796
sI2796
S'4661955'
p2797
sI2797
S'6987855'
p2798
sI2798
S'7806197'
p2799
sI2799
S'3382485'
p2800
sI2800
S'2532971'
p2801
sI2801
S'8029798'
p2802
sI2802
S'2236694'
p2803
sI2803
S'8461506'
p2804
sI2804
S'6823057'
p2805
sI2805
S'4616040'
p2806
sI2806
S'3677274'
p2807
sI2807
S'5413930'
p2808
sI2808
S'7904207'
p2809
sI2809
S'5446565'
p2810
sI2810
S'696242'
p2811
sI2811
S'6987656'
p2812
sI2812
S'6201157'
p2813
sI2813
S'1056572'
p2814
sI2814
S'696069'
p2815
sI2815
S'934264'
p2816
sI2816
S'6811559'
p2817
sI2817
S'7839186'
p2818
sI2818
S'1154506'
p2819
sI2819
S'499096'
p2820
sI2820
S'662082'
p2821
sI2821
S'9149812'
p2822
sI2822
S'3284336'
p2823
sI2823
S'138592'
p2824
sI2824
S'5414237'
p2825
sI2825
S'6954332'
p2826
sI2826
S'6495015'
p2827
sI2827
S'760539'
p2828
sI2828
S'5085892'
p2829
sI2829
S'465540'
p2830
sI2830
S'7805578'
p2831
sI2831
S'5806694'
p2832
sI2832
S'727583'
p2833
sI2833
S'3940055'
p2834
sI2834
S'7151287'
p2835
sI2835
S'8461309'
p2836
sI2836
S'5020057'
p2837
sI2837
S'7575970'
p2838
sI2838
S'8225702'
p2839
sI2839
S'693721'
p2840
sI2840
S'2266589'
p2841
sI2841
S'4527553'
p2842
sI2842
S'169393'
p2843
sI2843
S'6886839'
p2844
sI2844
S'6526344'
p2845
sI2845
S'6985033'
p2846
sI2846
S'6357895'
p2847
sI2847
S'988399'
p2848
sI2848
S'562311'
p2849
sI2849
S'5444754'
p2850
sI2850
S'8339680'
p2851
sI2851
S'1152027'
p2852
sI2852
S'7345170'
p2853
sI2853
S'1053666'
p2854
sI2854
S'1840105'
p2855
sI2855
S'694368'
p2856
sI2856
S'268353'
p2857
sI2857
S'6854601'
p2858
sI2858
S'2467942'
p2859
sI2859
S'8066789'
p2860
sI2860
S'1109588'
p2861
sI2861
S'726657'
p2862
sI2862
S'4494959'
p2863
sI2863
S'6559335'
p2864
sI2864
S'5969483'
p2865
sI2865
S'8459807'
p2866
sI2866
S'6592005'
p2867
sI2867
S'4735915'
p2868
sI2868
S'5841'
p2869
sI2869
S'3250486'
p2870
sI2870
S'1246255'
p2871
sI2871
S'5019863'
p2872
sI2872
S'4297539'
p2873
sI2873
S'4887355'
p2874
sI2874
S'1151548'
p2875
sI2875
S'2048206'
p2876
sI2876
S'1774026'
p2877
sI2877
S'496042'
p2878
sI2878
S'5607788'
p2879
sI2879
S'4526309'
p2880
sI2880
S'8327375'
p2881
sI2881
S'4768456'
p2882
sI2882
S'1937575'
p2883
sI2883
S'102507'
p2884
sI2884
S'6852699'
p2885
sI2885
S'1970257'
p2886
sI2886
S'8557304'
p2887
sI2887
S'5991888'
p2888
sI2888
S'5903014'
p2889
sI2889
S'1807012'
p2890
sI2890
S'856123'
p2891
sI2891
S'8591360'
p2892
sI2892
S'954079'
p2893
sI2893
S'1511076'
p2894
sI2894
S'7802522'
p2895
sI2895
S'1117756'
p2896
sI2896
S'3711055'
p2897
sI2897
S'4525604'
p2898
sI2898
S'7933407'
p2899
sI2899
S'6884640'
p2900
sI2900
S'625935'
p2901
sI2901
S'7310602'
p2902
sI2902
S'6393091'
p2903
sI2903
S'4165508'
p2904
sI2904
S'7278395'
p2905
sI2905
S'9080622'
p2906
sI2906
S'1347349'
p2907
sI2907
S'1543266'
p2908
sI2908
S'7113745'
p2909
sI2909
S'6261031'
p2910
sI2910
S'529275'
p2911
sI2911
S'3344631'
p2912
sI2912
S'1181926'
p2913
sI2913
S'4623800'
p2914
sI2914
S'4885932'
p2915
sI2915
S'6950320'
p2916
sI2916
S'298368'
p2917
sI2917
S'8228206'
p2918
sI2918
S'8423604'
p2919
sI2919
S'985261'
p2920
sI2920
S'3311711'
p2921
sI2921
S'6324586'
p2922
sI2922
S'2557977'
p2923
sI2923
S'1240042'
p2924
sI2924
S'1640307'
p2925
sI2925
S'4753236'
p2926
sI2926
S'5834571'
p2927
sI2927
S'7125138'
p2928
sI2928
S'4411524'
p2929
sI2929
S'8554993'
p2930
sI2930
S'5769693'
p2931
sI2931
S'8030646'
p2932
sI2932
S'3148103'
p2933
sI2933
S'8292066'
p2934
sI2934
S'5932682'
p2935
sI2935
S'5506650'
p2936
sI2936
S'7931074'
p2937
sI2937
S'5506174'
p2938
sI2938
S'1836093'
p2939
sI2939
S'330736'
p2940
sI2940
S'592883'
p2941
sI2941
S'4295657'
p2942
sI2942
S'8784838'
p2943
sI2943
S'8194889'
p2944
sI2944
S'3377936'
p2945
sI2945
S'7998215'
p2946
sI2946
S'3269061'
p2947
sI2947
S'7228772'
p2948
sI2948
S'4031490'
p2949
sI2949
S'885748'
p2950
sI2950
S'4588499'
p2951
sI2951
S'8717203'
p2952
sI2952
S'1737616'
p2953
sI2953
S'7439070'
p2954
sI2954
S'6423128'
p2955
sI2955
S'6914642'
p2956
sI2956
S'2198399'
p2957
sI2957
S'7603600'
p2958
sI2958
S'3081560'
p2959
sI2959
S'2950451'
p2960
sI2960
S'8291604'
p2961
sI2961
S'7439614'
p2962
sI2962
S'8389858'
p2963
sI2963
S'2856374'
p2964
sI2964
S'6390313'
p2965
sI2965
S'4981195'
p2966
sI2966
S'7498479'
p2967
sI2967
S'4423944'
p2968
sI2968
S'1736738'
p2969
sI2969
S'6848705'
p2970
sI2970
S'591431'
p2971
sI2971
S'1738309'
p2972
sI2972
S'4785637'
p2973
sI2973
S'3835460'
p2974
sI2974
S'2889301'
p2975
sI2975
S'6377705'
p2976
sI2976
S'4664110'
p2977
sI2977
S'3615430'
p2978
sI2978
S'6225957'
p2979
sI2979
S'4887896'
p2980
sI2980
S'7615490'
p2981
sI2981
S'2126868'
p2982
sI2982
S'3992022'
p2983
sI2983
S'1125079'
p2984
sI2984
S'2177177'
p2985
sI2985
S'4429527'
p2986
sI2986
S'1641060'
p2987
sI2987
S'1261122'
p2988
sI2988
S'7074753'
p2989
sI2989
S'1170626'
p2990
sI2990
S'761815'
p2991
sI2991
S'4105694'
p2992
sI2992
S'273960'
p2993
sI2993
S'1110746'
p2994
sI2994
S'5184414'
p2995
sI2995
S'5359665'
p2996
sI2996
S'8341959'
p2997
sI2997
S'109883'
p2998
sI2998
S'7196412'
p2999
sI2999
S'1198464'
p3000
sI3000
S'4565098'
p3001
sI3001
S'1014016'
p3002
sI3002
S'1421937'
p3003
sI3003
S'2387068'
p3004
sI3004
S'2739803'
p3005
sI3005
S'9199446'
p3006
sI3006
S'8671812'
p3007
sI3007
S'5037937'
p3008
sI3008
S'767506'
p3009
sI3009
S'7418071'
p3010
sI3010
S'2374267'
p3011
sI3011
S'5202993'
p3012
sI3012
S'1801684'
p3013
sI3013
S'535293'
p3014
sI3014
S'8219149'
p3015
sI3015
S'3757993'
p3016
sI3016
S'6940354'
p3017
sI3017
S'4752055'
p3018
sI3018
S'7581918'
p3019
sI3019
S'1910127'
p3020
sI3020
S'6716200'
p3021
sI3021
S'5144482'
p3022
sI3022
S'8779829'
p3023
sI3023
S'6482257'
p3024
sI3024
S'1785463'
p3025
sI3025
S'1392204'
p3026
sI3026
S'6091945'
p3027
sI3027
S'8351923'
p3028
sI3028
S'6678367'
p3029
sI3029
S'6940448'
p3030
sI3030
S'8118958'
p3031
sI3031
S'8052872'
p3032
sI3032
S'7788714'
p3033
sI3033
S'4216086'
p3034
sI3034
S'676228'
p3035
sI3035
S'4576416'
p3036
sI3036
S'8341262'
p3037
sI3037
S'4607282'
p3038
sI3038
S'8118808'
p3039
sI3039
S'5785631'
p3040
sI3040
S'280549'
p3041
sI3041
S'7227729'
p3042
sI3042
S'6538698'
p3043
sI3043
S'7783204'
p3044
sI3044
S'49559'
p3045
sI3045
S'4305042'
p3046
sI3046
S'6405183'
p3047
sI3047
S'8047016'
p3048
sI3048
S'538705'
p3049
sI3049
S'5650515'
p3050
sI3050
S'5616609'
p3051
sI3051
S'5288415'
p3052
sI3052
S'5561787'
p3053
sI3053
S'1125115'
p3054
sI3054
S'8104288'
p3055
sI3055
S'5359224'
p3056
sI3056
S'8070077'
p3057
sI3057
S'1011751'
p3058
sI3058
S'2139562'
p3059
sI3059
S'5784765'
p3060
sI3060
S'9110654'
p3061
sI3061
S'7937782'
p3062
sI3062
S'1710133'
p3063
sI3063
S'7803013'
p3064
sI3064
S'6423158'
p3065
sI3065
S'8325147'
p3066
sI3066
S'8193845'
p3067
sI3067
S'1510363'
p3068
sI3068
S'2526148'
p3069
sI3069
S'2524082'
p3070
sI3070
S'7930461'
p3071
sI3071
S'3553259'
p3072
sI3072
S'1530721'
p3073
sI3073
S'2940504'
p3074
sI3074
S'6515080'
p3075
sI3075
S'7622566'
p3076
sI3076
S'6676021'
p3077
sI3077
S'3696908'
p3078
sI3078
S'5944921'
p3079
sI3079
S'764010'
p3080
sI3080
S'4170452'
p3081
sI3081
S'1830541'
p3082
sI3082
S'875287'
p3083
sI3083
S'1892250'
p3084
sI3084
S'4903635'
p3085
sI3085
S'3304131'
p3086
sI3086
S'7009791'
p3087
sI3087
S'7663186'
p3088
sI3088
S'2387702'
p3089
sI3089
S'178740'
p3090
sI3090
S'440179'
p3091
sI3091
S'795247'
p3092
sI3092
S'8608073'
p3093
sI3093
S'6187679'
p3094
sI3094
S'4842662'
p3095
sI3095
S'8576907'
p3096
sI3096
S'4699464'
p3097
sI3097
S'8597777'
p3098
sI3098
S'6765265'
p3099
sI3099
S'6799615'
p3100
sI3100
S'1467233'
p3101
sI3101
S'7294322'
p3102
sI3102
S'5990731'
p3103
sI3103
S'6610089'
p3104
sI3104
S'3852803'
p3105
sI3105
S'867417'
p3106
sI3106
S'699662'
p3107
sI3107
S'8504435'
p3108
sI3108
S'5861266'
p3109
sI3109
S'8595307'
p3110
sI3110
S'4316724'
p3111
sI3111
S'1174346'
p3112
sI3112
S'5827426'
p3113
sI3113
S'4504326'
p3114
sI3114
S'2310518'
p3115
sI3115
S'5194736'
p3116
sI3116
S'1941534'
p3117
sI3117
S'8652671'
p3118
sI3118
S'7531064'
p3119
sI3119
S'6629620'
p3120
sI3120
S'7452112'
p3121
sI3121
S'8763061'
p3122
sI3122
S'7344289'
p3123
sI3123
S'7726184'
p3124
sI3124
S'889175'
p3125
sI3125
S'3792754'
p3126
sI3126
S'1209893'
p3127
sI3127
S'998708'
p3128
sI3128
S'5794841'
p3129
sI3129
S'6572428'
p3130
sI3130
S'2209324'
p3131
sI3131
S'720811'
p3132
sI3132
S'7733101'
p3133
sI3133
S'2326228'
p3134
sI3134
S'4576487'
p3135
sI3135
S'4816101'
p3136
sI3136
S'7699550'
p3137
sI3137
S'424846'
p3138
sI3138
S'8271855'
p3139
sI3139
S'4199529'
p3140
sI3140
S'1277771'
p3141
sI3141
S'6224858'
p3142
sI3142
S'8011397'
p3143
sI3143
S'7370012'
p3144
sI3144
S'8781352'
p3145
sI3145
S'6558552'
p3146
sI3146
S'8646245'
p3147
sI3147
S'5697110'
p3148
sI3148
S'5172392'
p3149
sI3149
S'9136810'
p3150
sI3150
S'256176'
p3151
sI3151
S'234394'
p3152
sI3152
S'6884859'
p3153
sI3153
S'7759598'
p3154
sI3154
S'2123469'
p3155
sI3155
S'6994279'
p3156
sI3156
S'3013520'
p3157
sI3157
S'3262842'
p3158
sI3158
S'7939407'
p3159
sI3159
S'9168078'
p3160
sI3160
S'909052'
p3161
sI3161
S'4251332'
p3162
sI3162
S'1072791'
p3163
sI3163
S'2219598'
p3164
sI3164
S'6260599'
p3165
sI3165
S'5298133'
p3166
sI3166
S'4216611'
p3167
sI3167
S'5068265'
p3168
sI3168
S'4249885'
p3169
sI3169
S'8719998'
p3170
sI3170
S'4576349'
p3171
sI3171
S'4576288'
p3172
sI3172
S'7884952'
p3173
sI3173
S'675360'
p3174
sI3174
S'8407997'
p3175
sI3175
S'8996945'
p3176
sI3176
S'904365'
p3177
sI3177
S'2049955'
p3178
sI3178
S'4372075'
p3179
sI3179
S'1460628'
p3180
sI3180
S'6276628'
p3181
sI3181
S'3820089'
p3182
sI3182
S'8342059'
p3183
sI3183
S'4077186'
p3184
sI3184
S'9028771'
p3185
sI3185
S'4113512'
p3186
sI3186
S'934012'
p3187
sI3187
S'7290898'
p3188
sI3188
S'1122374'
p3189
sI3189
S'2670951'
p3190
sI3190
S'114006'
p3191
sI3191
S'1687330'
p3192
sI3192
S'7828695'
p3193
sI3193
S'2112118'
p3194
sI3194
S'6765439'
p3195
sI3195
S'4209025'
p3196
sI3196
S'178532'
p3197
sI3197
S'7583060'
p3198
sI3198
S'3586296'
p3199
sI3199
S'964751'
p3200
sI3200
S'2203283'
p3201
sI3201
S'6403253'
p3202
sI3202
S'1966719'
p3203
sI3203
S'1126710'
p3204
sI3204
S'5271677'
p3205
sI3205
S'3780458'
p3206
sI3206
S'569139'
p3207
sI3207
S'5561522'
p3208
sI3208
S'8956815'
p3209
sI3209
S'6761271'
p3210
sI3210
S'1847664'
p3211
sI3211
S'7841744'
p3212
sI3212
S'666192'
p3213
sI3213
S'3709900'
p3214
sI3214
S'561148'
p3215
sI3215
S'2139059'
p3216
sI3216
S'4956697'
p3217
sI3217
S'7807401'
p3218
sI3218
S'8422778'
p3219
sI3219
S'173464'
p3220
sI3220
S'3907602'
p3221
sI3221
S'186915'
p3222
sI3222
S'2455325'
p3223
sI3223
S'2677273'
p3224
sI3224
S'3678124'
p3225
sI3225
S'8717641'
p3226
sI3226
S'4856372'
p3227
sI3227
S'8101502'
p3228
sI3228
S'138221'
p3229
sI3229
S'7149792'
p3230
sI3230
S'5870793'
p3231
sI3231
S'3730294'
p3232
sI3232
S'6958780'
p3233
sI3233
S'6479333'
p3234
sI3234
S'8132903'
p3235
sI3235
S'4264420'
p3236
sI3236
S'3969494'
p3237
sI3237
S'528585'
p3238
sI3238
S'7147566'
p3239
sI3239
S'7764018'
p3240
sI3240
S'8850711'
p3241
sI3241
S'6491331'
p3242
sI3242
S'4787253'
p3243
sI3243
S'134193'
p3244
sI3244
S'3377433'
p3245
sI3245
S'2361587'
p3246
sI3246
S'66119'
p3247
sI3247
S'6425935'
p3248
sI3248
S'1673255'
p3249
sI3249
S'2459643'
p3250
sI3250
S'1542007'
p3251
sI3251
S'4360006'
p3252
sI3252
S'8816998'
p3253
sI3253
S'6587558'
p3254
sI3254
S'5768269'
p3255
sI3255
S'1344409'
p3256
sI3256
S'2119401'
p3257
sI3257
S'1967532'
p3258
sI3258
S'3310076'
p3259
sI3259
S'6269649'
p3260
sI3260
S'8815041'
p3261
sI3261
S'4948340'
p3262
sI3262
S'5506592'
p3263
sI3263
S'1016604'
p3264
sI3264
S'1344243'
p3265
sI3265
S'1179778'
p3266
sI3266
S'4948327'
p3267
sI3267
S'121405'
p3268
sI3268
S'7310084'
p3269
sI3269
S'8107557'
p3270
sI3270
S'3290739'
p3271
sI3271
S'4059549'
p3272
sI3272
S'6783349'
p3273
sI3273
S'189894'
p3274
sI3274
S'1364882'
p3275
sI3275
S'6467787'
p3276
sI3276
S'5550142'
p3277
sI3277
S'1360756'
p3278
sI3278
S'4631873'
p3279
sI3279
S'4013740'
p3280
sI3280
S'6956678'
p3281
sI3281
S'6543583'
p3282
sI3282
S'8054733'
p3283
sI3283
S'7827518'
p3284
sI3284
S'7546514'
p3285
sI3285
S'1301148'
p3286
sI3286
S'7346955'
p3287
sI3287
S'8101297'
p3288
sI3288
S'8472083'
p3289
sI3289
S'1241029'
p3290
sI3290
S'4105435'
p3291
sI3291
S'8014046'
p3292
sI3292
S'1142127'
p3293
sI3293
S'8675315'
p3294
sI3294
S'710004'
p3295
sI3295
S'2558763'
p3296
sI3296
S'6702345'
p3297
sI3297
S'1615260'
p3298
sI3298
S'1876948'
p3299
sI3299
S'2713521'
p3300
sI3300
S'7689528'
p3301
sI3301
S'7182126'
p3302
sI3302
S'8412038'
p3303
sI3303
S'746376'
p3304
sI3304
S'2665864'
p3305
sI3305
S'8823834'
p3306
sI3306
S'4157555'
p3307
sI3307
S'5524877'
p3308
sI3308
S'4370547'
p3309
sI3309
S'1213989'
p3310
sI3310
S'4701624'
p3311
sI3311
S'3843664'
p3312
sI3312
S'881105'
p3313
sI3313
S'582335'
p3314
sI3314
S'758815'
p3315
sI3315
S'7661987'
p3316
sI3316
S'2406851'
p3317
sI3317
S'92249'
p3318
sI3318
S'8623744'
p3319
sI3319
S'7261307'
p3320
sI3320
S'3029597'
p3321
sI3321
S'4838843'
p3322
sI3322
S'1681725'
p3323
sI3323
S'834902'
p3324
sI3324
S'6435497'
p3325
sI3325
S'6577892'
p3326
sI3326
S'10819'
p3327
sI3327
S'1096497'
p3328
sI3328
S'7985218'
p3329
sI3329
S'2603930'
p3330
sI3330
S'911156'
p3331
sI3331
S'7003729'
p3332
sI3332
S'3140379'
p3333
sI3333
S'5413614'
p3334
sI3334
S'443710'
p3335
sI3335
S'4892016'
p3336
sI3336
S'5298398'
p3337
sI3337
S'4110344'
p3338
sI3338
S'939189'
p3339
sI3339
S'6120436'
p3340
sI3340
S'3560837'
p3341
sI3341
S'4947967'
p3342
sI3342
S'7700393'
p3343
sI3343
S'8370658'
p3344
sI3344
S'8683337'
p3345
sI3345
S'1506702'
p3346
sI3346
S'6119018'
p3347
sI3347
S'9075545'
p3348
sI3348
S'5193765'
p3349
sI3349
S'1015336'
p3350
sI3350
S'2587299'
p3351
sI3351
S'4782716'
p3352
sI3352
S'2685168'
p3353
sI3353
S'4094105'
p3354
sI3354
S'3962831'
p3355
sI3355
S'1832862'
p3356
sI3356
S'2127746'
p3357
sI3357
S'7181769'
p3358
sI3358
S'1866195'
p3359
sI3359
S'6444103'
p3360
sI3360
S'7436608'
p3361
sI3361
S'6950411'
p3362
sI3362
S'3175769'
p3363
sI3363
S'2795666'
p3364
sI3364
S'8811281'
p3365
sI3365
S'2093811'
p3366
sI3366
S'6482099'
p3367
sI3367
S'3522033'
p3368
sI3368
S'8170245'
p3369
sI3369
S'7111861'
p3370
sI3370
S'3830083'
p3371
sI3371
S'256037'
p3372
sI3372
S'4735795'
p3373
sI3373
S'8187662'
p3374
sI3374
S'5532400'
p3375
sI3375
S'584402'
p3376
sI3376
S'2189514'
p3377
sI3377
S'7826323'
p3378
sI3378
S'7989316'
p3379
sI3379
S'256028'
p3380
sI3380
S'8612312'
p3381
sI3381
S'6088249'
p3382
sI3382
S'1943026'
p3383
sI3383
S'681521'
p3384
sI3384
S'7921739'
p3385
sI3385
S'7479448'
p3386
sI3386
S'4022990'
p3387
sI3387
S'4710215'
p3388
sI3388
S'6481867'
p3389
sI3389
S'3006685'
p3390
sI3390
S'581216'
p3391
sI3391
S'678525'
p3392
sI3392
S'4566284'
p3393
sI3393
S'6051847'
p3394
sI3394
S'1300480'
p3395
sI3395
S'6412221'
p3396
sI3396
S'5298102'
p3397
sI3397
S'3200885'
p3398
sI3398
S'285637'
p3399
sI3399
S'2710372'
p3400
sI3400
S'1264260'
p3401
sI3401
S'741637'
p3402
sI3402
S'3890437'
p3403
sI3403
S'6476983'
p3404
sI3404
S'741229'
p3405
sI3405
S'676054'
p3406
sI3406
S'1827480'
p3407
sI3407
S'1593938'
p3408
sI3408
S'4968197'
p3409
sI3409
S'7163311'
p3410
sI3410
S'9030893'
p3411
sI3411
S'334886'
p3412
sI3412
S'6016017'
p3413
sI3413
S'6886765'
p3414
sI3414
S'1263837'
p3415
sI3415
S'1166577'
p3416
sI3416
S'6119825'
p3417
sI3417
S'7826090'
p3418
sI3418
S'9094606'
p3419
sI3419
S'2209422'
p3420
sI3420
S'4376389'
p3421
sI3421
S'134015'
p3422
sI3422
S'9028779'
p3423
sI3423
S'148627'
p3424
sI3424
S'8631677'
p3425
sI3425
S'3424189'
p3426
sI3426
S'318056'
p3427
sI3427
S'7632363'
p3428
sI3428
S'9028460'
p3429
sI3429
S'901969'
p3430
sI3430
S'2802480'
p3431
sI3431
S'5039411'
p3432
sI3432
S'869057'
p3433
sI3433
S'2670842'
p3434
sI3434
S'8569761'
p3435
sI3435
S'6438568'
p3436
sI3436
S'1482273'
p3437
sI3437
S'7790428'
p3438
sI3438
S'357551'
p3439
sI3439
S'3685381'
p3440
sI3440
S'2472890'
p3441
sI3441
S'6201142'
p3442
sI3442
S'4078302'
p3443
sI3443
S'4242823'
p3444
sI3444
S'3718513'
p3445
sI3445
S'2433743'
p3446
sI3446
S'3489100'
p3447
sI3447
S'6798653'
p3448
sI3448
S'7322867'
p3449
sI3449
S'7091915'
p3450
sI3450
S'2072177'
p3451
sI3451
S'5192066'
p3452
sI3452
S'652977'
p3453
sI3453
S'8304582'
p3454
sI3454
S'4404438'
p3455
sI3455
S'2326775'
p3456
sI3456
S'1094506'
p3457
sI3457
S'1291092'
p3458
sI3458
S'2274441'
p3459
sI3459
S'7070971'
p3460
sI3460
S'3519611'
p3461
sI3461
S'6107258'
p3462
sI3462
S'1547539'
p3463
sI3463
S'8598197'
p3464
sI3464
S'504146'
p3465
sI3465
S'4632133'
p3466
sI3466
S'1551606'
p3467
sI3467
S'8924372'
p3468
sI3468
S'6506593'
p3469
sI3469
S'1940914'
p3470
sI3470
S'6571877'
p3471
sI3471
S'8865630'
p3472
sI3472
S'994653'
p3473
sI3473
S'6654393'
p3474
sI3474
S'1072287'
p3475
sI3475
S'7547105'
p3476
sI3476
S'10829'
p3477
sI3477
S'973782'
p3478
sI3478
S'962719'
p3479
sI3479
S'700563'
p3480
sI3480
S'6201945'
p3481
sI3481
S'1484053'
p3482
sI3482
S'7840921'
p3483
sI3483
S'1483107'
p3484
sI3484
S'8471936'
p3485
sI3485
S'4559204'
p3486
sI3486
S'2072781'
p3487
sI3487
S'8646903'
p3488
sI3488
S'132090'
p3489
sI3489
S'5631995'
p3490
sI3490
S'7696512'
p3491
sI3491
S'6169292'
p3492
sI3492
S'2564754'
p3493
sI3493
S'3939634'
p3494
sI3494
S'7347475'
p3495
sI3495
S'8470218'
p3496
sI3496
S'6134837'
p3497
sI3497
S'3475515'
p3498
sI3498
S'5873066'
p3499
sI3499
S'7477905'
p3500
sI3500
S'4987515'
p3501
sI3501
S'4430207'
p3502
sI3502
S'8684604'
p3503
sI3503
S'2659694'
p3504
sI3504
S'5182797'
p3505
sI3505
S'8656153'
p3506
sI3506
S'2233416'
p3507
sI3507
S'8459255'
p3508
sI3508
S'2102236'
p3509
sI3509
S'7870535'
p3510
sI3510
S'6002513'
p3511
sI3511
S'2856542'
p3512
sI3512
S'6461695'
p3513
sI3513
S'7695857'
p3514
sI3514
S'4363132'
p3515
sI3515
S'2134475'
p3516
sI3516
S'562083'
p3517
sI3517
S'9048223'
p3518
sI3518
S'8065112'
p3519
sI3519
S'594613'
p3520
sI3520
S'3809294'
p3521
sI3521
S'1174214'
p3522
sI3522
S'5804060'
p3523
sI3523
S'373301'
p3524
sI3524
S'8916505'
p3525
sI3525
S'640605'
p3526
sI3526
S'4282346'
p3527
sI3527
S'7638083'
p3528
sI3528
S'5114154'
p3529
sI3529
S'557423'
p3530
sI3530
S'3737368'
p3531
sI3531
S'985693'
p3532
sI3532
S'4393305'
p3533
sI3533
S'4950352'
p3534
sI3534
S'4097700'
p3535
sI3535
S'4654737'
p3536
sI3536
S'5572169'
p3537
sI3537
S'8388709'
p3538
sI3538
S'3115736'
p3539
sI3539
S'8482537'
p3540
sI3540
S'1836986'
p3541
sI3541
S'459809'
p3542
sI3542
S'8402825'
p3543
sI3543
S'33677'
p3544
sI3544
S'8686522'
p3545
sI3545
S'4818263'
p3546
sI3546
S'8290523'
p3547
sI3547
S'7968301'
p3548
sI3548
S'8088445'
p3549
sI3549
S'1475779'
p3550
sI3550
S'355083'
p3551
sI3551
S'4850162'
p3552
sI3552
S'917988'
p3553
sI3553
S'8847801'
p3554
sI3554
S'1212822'
p3555
sI3555
S'7367372'
p3556
sI3556
S'624195'
p3557
sI3557
S'9033183'
p3558
sI3558
S'1048721'
p3559
sI3559
S'4325505'
p3560
sI3560
S'7225674'
p3561
sI3561
S'9196922'
p3562
sI3562
S'6872214'
p3563
sI3563
S'1880307'
p3564
sI3564
S'1069167'
p3565
sI3565
S'8763676'
p3566
sI3566
S'203621'
p3567
sI3567
S'4962043'
p3568
sI3568
S'8255072'
p3569
sI3569
S'5059145'
p3570
sI3570
S'9064139'
p3571
sI3571
S'5970639'
p3572
sI3572
S'9029725'
p3573
sI3573
S'9170261'
p3574
sI3574
S'4216441'
p3575
sI3575
S'4215907'
p3576
sI3576
S'1233002'
p3577
sI3577
S'5218022'
p3578
sI3578
S'4235408'
p3579
sI3579
S'6450346'
p3580
sI3580
S'8733931'
p3581
sI3581
S'1228082'
p3582
sI3582
S'2521327'
p3583
sI3583
S'6541130'
p3584
sI3584
S'3760258'
p3585
sI3585
S'5068964'
p3586
sI3586
S'7010691'
p3587
sI3587
S'8779919'
p3588
sI3588
S'8880013'
p3589
sI3589
S'950094'
p3590
sI3590
S'4029948'
p3591
sI3591
S'8714325'
p3592
sI3592
S'719335'
p3593
sI3593
S'782126'
p3594
sI3594
S'3469495'
p3595
sI3595
S'714955'
p3596
sI3596
S'7038579'
p3597
sI3597
S'3890928'
p3598
sI3598
S'8635973'
p3599
sI3599
S'678453'
p3600
sI3600
S'1759587'
p3601
sI3601
S'8277718'
p3602
sI3602
S'1659729'
p3603
sI3603
S'1267401'
p3604
sI3604
S'7223567'
p3605
sI3605
S'1455937'
p3606
sI3606
S'2608516'
p3607
sI3607
S'4042200'
p3608
sI3608
S'6572614'
p3609
sI3609
S'8210662'
p3610
sI3610
S'1887206'
p3611
sI3611
S'8404771'
p3612
sI3612
S'6387137'
p3613
sI3613
S'25612'
p3614
sI3614
S'637626'
p3615
sI3615
S'900569'
p3616
sI3616
S'4503310'
p3617
sI3617
S'6305740'
p3618
sI3618
S'8500093'
p3619
sI3619
S'110825'
p3620
sI3620
S'2339939'
p3621
sI3621
S'9088640'
p3622
sI3622
S'8614503'
p3623
sI3623
S'9023988'
p3624
sI3624
S'5976428'
p3625
sI3625
S'7161951'
p3626
sI3626
S'7514742'
p3627
sI3627
S'7788844'
p3628
sI3628
S'6661706'
p3629
sI3629
S'4040371'
p3630
sI3630
S'4236655'
p3631
sI3631
S'3689368'
p3632
sI3632
S'6385532'
p3633
sI3633
S'6726332'
p3634
sI3634
S'7053339'
p3635
sI3635
S'5217164'
p3636
sI3636
S'302618'
p3637
sI3637
S'2333058'
p3638
sI3638
S'1316281'
p3639
sI3639
S'5205497'
p3640
sI3640
S'4526608'
p3641
sI3641
S'4396821'
p3642
sI3642
S'3370434'
p3643
sI3643
S'9114249'
p3644
sI3644
S'9013556'
p3645
sI3645
S'8784074'
p3646
sI3646
S'2132506'
p3647
sI3647
S'8102262'
p3648
sI3648
S'2822'
p3649
sI3649
S'8913822'
p3650
sI3650
S'8612786'
p3651
sI3651
S'6239131'
p3652
sI3652
S'8011115'
p3653
sI3653
S'8048653'
p3654
sI3654
S'8055632'
p3655
sI3655
S'7922690'
p3656
sI3656
S'2305982'
p3657
sI3657
S'311259'
p3658
sI3658
S'2380646'
p3659
sI3659
S'681516'
p3660
sI3660
S'8408663'
p3661
sI3661
S'8155586'
p3662
sI3662
S'6439026'
p3663
sI3663
S'7694697'
p3664
sI3664
S'4855686'
p3665
sI3665
S'6145605'
p3666
sI3666
S'7957051'
p3667
sI3667
S'9137705'
p3668
sI3668
S'8052814'
p3669
sI3669
S'7921146'
p3670
sI3670
S'1960478'
p3671
sI3671
S'46843'
p3672
sI3672
S'702635'
p3673
sI3673
S'3981270'
p3674
sI3674
S'1913912'
p3675
sI3675
S'2305945'
p3676
sI3676
S'2305887'
p3677
sI3677
S'6990399'
p3678
sI3678
S'3973465'
p3679
sI3679
S'7937826'
p3680
sI3680
S'760451'
p3681
sI3681
S'8521003'
p3682
sI3682
S'7734310'
p3683
sI3683
S'7441968'
p3684
sI3684
S'8353576'
p3685
sI3685
S'5405920'
p3686
sI3686
S'2846662'
p3687
sI3687
S'4280408'
p3688
sI3688
S'6596859'
p3689
sI3689
S'9051661'
p3690
sI3690
S'5338610'
p3691
sI3691
S'2503408'
p3692
sI3692
S'9109508'
p3693
sI3693
S'9008342'
p3694
sI3694
S'9136429'
p3695
sI3695
S'4739227'
p3696
sI3696
S'8594577'
p3697
sI3697
S'3896205'
p3698
sI3698
S'4237349'
p3699
sI3699
S'3496808'
p3700
sI3700
S'1788220'
p3701
sI3701
S'1388804'
p3702
sI3702
S'717606'
p3703
sI3703
S'8406787'
p3704
sI3704
S'717598'
p3705
sI3705
S'7840831'
p3706
sI3706
S'7227605'
p3707
sI3707
S'314248'
p3708
sI3708
S'1438504'
p3709
sI3709
S'7871076'
p3710
sI3710
S'9032699'
p3711
sI3711
S'8203348'
p3712
sI3712
S'8446662'
p3713
sI3713
S'4040296'
p3714
sI3714
S'4716483'
p3715
sI3715
S'1902917'
p3716
sI3716
S'3695050'
p3717
sI3717
S'902453'
p3718
sI3718
S'277314'
p3719
sI3719
S'6975528'
p3720
sI3720
S'4550284'
p3721
sI3721
S'7680800'
p3722
sI3722
S'5782032'
p3723
sI3723
S'7292730'
p3724
sI3724
S'4422501'
p3725
sI3725
S'8144172'
p3726
sI3726
S'648084'
p3727
sI3727
S'1822272'
p3728
sI3728
S'4325210'
p3729
sI3729
S'2424088'
p3730
sI3730
S'6258486'
p3731
sI3731
S'8583938'
p3732
sI3732
S'1931946'
p3733
sI3733
S'982029'
p3734
sI3734
S'7011305'
p3735
sI3735
S'8288229'
p3736
sI3736
S'1703662'
p3737
sI3737
S'8650354'
p3738
sI3738
S'9065415'
p3739
sI3739
S'5269787'
p3740
sI3740
S'1110787'
p3741
sI3741
S'5895416'
p3742
sI3742
S'1386564'
p3743
sI3743
S'1095355'
p3744
sI3744
S'2257205'
p3745
sI3745
S'5730562'
p3746
sI3746
S'8810727'
p3747
sI3747
S'1273037'
p3748
sI3748
S'5008233'
p3749
sI3749
S'4171658'
p3750
sI3750
S'8579693'
p3751
sI3751
S'5270096'
p3752
sI3752
S'3776230'
p3753
sI3753
S'5739153'
p3754
sI3754
S'7727060'
p3755
sI3755
S'1931459'
p3756
sI3756
S'7229446'
p3757
sI3757
S'942848'
p3758
sI3758
S'7528301'
p3759
sI3759
S'24723'
p3760
sI3760
S'1495057'
p3761
sI3761
S'6511986'
p3762
sI3762
S'75043'
p3763
sI3763
S'1171357'
p3764
sI3764
S'8673679'
p3765
sI3765
S'546785'
p3766
sI3766
S'7886759'
p3767
sI3767
S'7329206'
p3768
sI3768
S'6591838'
p3769
sI3769
S'54634'
p3770
sI3770
S'4996397'
p3771
sI3771
S'2315086'
p3772
sI3772
S'1860342'
p3773
sI3773
S'6705601'
p3774
sI3774
S'8606034'
p3775
sI3775
S'8129978'
p3776
sI3776
S'4411461'
p3777
sI3777
S'8015910'
p3778
sI3778
S'544188'
p3779
sI3779
S'6545989'
p3780
sI3780
S'6900746'
p3781
sI3781
S'3755730'
p3782
sI3782
S'1821543'
p3783
sI3783
S'1101034'
p3784
sI3784
S'8522707'
p3785
sI3785
S'51773'
p3786
sI3786
S'8473183'
p3787
sI3787
S'7227910'
p3788
sI3788
S'837490'
p3789
sI3789
S'455588'
p3790
sI3790
S'7763237'
p3791
sI3791
S'8611734'
p3792
sI3792
S'8741287'
p3793
sI3793
S'6537846'
p3794
sI3794
S'442881'
p3795
sI3795
S'17330'
p3796
sI3796
S'9096011'
p3797
sI3797
S'4022209'
p3798
sI3798
S'932481'
p3799
sI3799
S'4962141'
p3800
sI3800
S'56621'
p3801
sI3801
S'144978'
p3802
sI3802
S'8578722'
p3803
sI3803
S'7681437'
p3804
sI3804
S'8582218'
p3805
sI3805
S'3889219'
p3806
sI3806
S'4396582'
p3807
sI3807
S'4979211'
p3808
sI3808
S'5056999'
p3809
sI3809
S'96383'
p3810
sI3810
S'6958601'
p3811
sI3811
S'7809420'
p3812
sI3812
S'5056897'
p3813
sI3813
S'8288576'
p3814
sI3814
S'4729418'
p3815
sI3815
S'3532347'
p3816
sI3816
S'1321466'
p3817
sI3817
S'8365894'
p3818
sI3818
S'3354928'
p3819
sI3819
S'8889445'
p3820
sI3820
S'4565015'
p3821
sI3821
S'1352111'
p3822
sI3822
S'2105714'
p3823
sI3823
S'8308113'
p3824
sI3824
S'5480795'
p3825
sI3825
S'159273'
p3826
sI3826
S'5315875'
p3827
sI3827
S'6331646'
p3828
sI3828
S'4015711'
p3829
sI3829
S'760837'
p3830
sI3830
S'1056591'
p3831
sI3831
S'6692402'
p3832
sI3832
S'8015696'
p3833
sI3833
S'630199'
p3834
sI3834
S'5970757'
p3835
sI3835
S'8559388'
p3836
sI3836
S'8034806'
p3837
sI3837
S'6001837'
p3838
sI3838
S'596042'
p3839
sI3839
S'8686676'
p3840
sI3840
S'338508'
p3841
sI3841
S'856476'
p3842
sI3842
S'8130298'
p3843
sI3843
S'6819512'
p3844
sI3844
S'4165197'
p3845
sI3845
S'8391829'
p3846
sI3846
S'7343245'
p3847
sI3847
S'8864274'
p3848
sI3848
S'5736712'
p3849
sI3849
S'2950940'
p3850
sI3850
S'5760163'
p3851
sI3851
S'2060136'
p3852
sI3852
S'1408731'
p3853
sI3853
S'3850649'
p3854
sI3854
S'7866059'
p3855
sI3855
S'8825794'
p3856
sI3856
S'1868880'
p3857
sI3857
S'8809821'
p3858
sI3858
S'4622981'
p3859
sI3859
S'8519840'
p3860
sI3860
S'4359078'
p3861
sI3861
S'5309335'
p3862
sI3862
S'689433'
p3863
sI3863
S'2183779'
p3864
sI3864
S'2628247'
p3865
sI3865
S'6185160'
p3866
sI3866
S'1879877'
p3867
sI3867
S'8227587'
p3868
sI3868
S'9073978'
p3869
sI3869
S'8132294'
p3870
sI3870
S'4448456'
p3871
sI3871
S'8016921'
p3872
sI3872
S'7175371'
p3873
sI3873
S'4183231'
p3874
sI3874
S'4061282'
p3875
sI3875
S'3569574'
p3876
sI3876
S'3802735'
p3877
sI3877
S'3760908'
p3878
sI3878
S'7983070'
p3879
sI3879
S'6970746'
p3880
sI3880
S'2350088'
p3881
sI3881
S'5172959'
p3882
sI3882
S'25168'
p3883
sI3883
S'3294554'
p3884
sI3884
S'4258545'
p3885
sI3885
S'4402199'
p3886
sI3886
S'5685769'
p3887
sI3887
S'6006768'
p3888
sI3888
S'2349816'
p3889
sI3889
S'1920661'
p3890
sI3890
S'6791472'
p3891
sI3891
S'1525137'
p3892
sI3892
S'1284122'
p3893
sI3893
S'38607'
p3894
sI3894
S'7935698'
p3895
sI3895
S'3769088'
p3896
sI3896
S'7637265'
p3897
sI3897
S'3310267'
p3898
sI3898
S'371595'
p3899
sI3899
S'3309928'
p3900
sI3900
S'3261876'
p3901
sI3901
S'882409'
p3902
sI3902
S'882424'
p3903
sI3903
S'877124'
p3904
sI3904
S'3924638'
p3905
sI3905
S'8035531'
p3906
sI3906
S'1140208'
p3907
sI3907
S'1843107'
p3908
sI3908
S'5299327'
p3909
sI3909
S'3468179'
p3910
sI3910
S'1104116'
p3911
sI3911
S'8055625'
p3912
sI3912
S'3186911'
p3913
sI3913
S'2771966'
p3914
sI3914
S'4727042'
p3915
sI3915
S'969142'
p3916
sI3916
S'6660753'
p3917
sI3917
S'7358222'
p3918
sI3918
S'3218158'
p3919
sI3919
S'2876470'
p3920
sI3920
S'7363762'
p3921
sI3921
S'2764551'
p3922
sI3922
S'5642608'
p3923
sI3923
S'8052692'
p3924
sI3924
S'6678912'
p3925
sI3925
S'1936677'
p3926
sI3926
S'8940883'
p3927
sI3927
S'7458945'
p3928
sI3928
S'7180020'
p3929
sI3929
S'3896946'
p3930
sI3930
S'4111549'
p3931
sI3931
S'6299485'
p3932
sI3932
S'7399265'
p3933
sI3933
S'272072'
p3934
sI3934
S'9098141'
p3935
sI3935
S'8322874'
p3936
sI3936
S'6287405'
p3937
sI3937
S'2401034'
p3938
sI3938
S'7030125'
p3939
sI3939
S'8405382'
p3940
sI3940
S'1272723'
p3941
sI3941
S'5629067'
p3942
sI3942
S'3319861'
p3943
sI3943
S'7762614'
p3944
sI3944
S'7595431'
p3945
sI3945
S'7094136'
p3946
sI3946
S'6646641'
p3947
sI3947
S'6236579'
p3948
sI3948
S'6600699'
p3949
sI3949
S'8034148'
p3950
sI3950
S'8632459'
p3951
sI3951
S'8084894'
p3952
sI3952
S'2166394'
p3953
sI3953
S'5552105'
p3954
sI3954
S'499196'
p3955
sI3955
S'6370117'
p3956
sI3956
S'2089892'
p3957
sI3957
S'4512332'
p3958
sI3958
S'7903561'
p3959
sI3959
S'3663532'
p3960
sI3960
S'4606822'
p3961
sI3961
S'9157904'
p3962
sI3962
S'8213421'
p3963
sI3963
S'4839456'
p3964
sI3964
S'9078522'
p3965
sI3965
S'8306266'
p3966
sI3966
S'1100477'
p3967
sI3967
S'2918138'
p3968
sI3968
S'2996514'
p3969
sI3969
S'524240'
p3970
sI3970
S'3102750'
p3971
sI3971
S'8469950'
p3972
sI3972
S'4175303'
p3973
sI3973
S'5095492'
p3974
sI3974
S'2008669'
p3975
sI3975
S'7663003'
p3976
sI3976
S'1237000'
p3977
sI3977
S'7288223'
p3978
sI3978
S'6211714'
p3979
sI3979
S'5376351'
p3980
sI3980
S'1914968'
p3981
sI3981
S'8870673'
p3982
sI3982
S'2503368'
p3983
sI3983
S'9166790'
p3984
sI3984
S'7655099'
p3985
sI3985
S'975664'
p3986
sI3986
S'9171396'
p3987
sI3987
S'4077198'
p3988
sI3988
S'8320021'
p3989
sI3989
S'7003985'
p3990
sI3990
S'8052743'
p3991
sI3991
S'6767858'
p3992
sI3992
S'6134156'
p3993
sI3993
S'8474061'
p3994
sI3994
S'7990169'
p3995
sI3995
S'7622369'
p3996
sI3996
S'8088742'
p3997
sI3997
S'8155397'
p3998
sI3998
S'3167528'
p3999
sI3999
S'8144992'
p4000
sI4000
S'6742780'
p4001
sI4001
S'7528408'
p4002
sI4002
S'779856'
p4003
sI4003
S'8228081'
p4004
sI4004
S'444411'
p4005
sI4005
S'4917836'
p4006
sI4006
S'8257036'
p4007
sI4007
S'1979461'
p4008
sI4008
S'4792110'
p4009
sI4009
S'9168346'
p4010
sI4010
S'8909249'
p4011
sI4011
S'6233751'
p4012
sI4012
S'9157627'
p4013
sI4013
S'8288356'
p4014
sI4014
S'6416617'
p4015
sI4015
S'8267080'
p4016
sI4016
S'7419858'
p4017
sI4017
S'6732192'
p4018
sI4018
S'9118104'
p4019
sI4019
S'8972726'
p4020
sI4020
S'3394127'
p4021
sI4021
S'8738009'
p4022
sI4022
S'2702606'
p4023
sI4023
S'2606070'
p4024
sI4024
S'4860814'
p4025
sI4025
S'1755304'
p4026
sI4026
S'7788309'
p4027
sI4027
S'7367563'
p4028
sI4028
S'6716622'
p4029
sI4029
S'6692309'
p4030
sI4030
S'8212576'
p4031
sI4031
S'7717918'
p4032
sI4032
S'8277136'
p4033
sI4033
S'8293777'
p4034
sI4034
S'1594165'
p4035
sI4035
S'1579281'
p4036
sI4036
S'4081570'
p4037
sI4037
S'9003491'
p4038
sI4038
S'5240693'
p4039
sI4039
S'8780280'
p4040
sI4040
S'1831361'
p4041
sI4041
S'8995266'
p4042
sI4042
S'1623396'
p4043
sI4043
S'8017119'
p4044
sI4044
S'8542873'
p4045
sI4045
S'408161'
p4046
sI4046
S'1944564'
p4047
sI4047
S'1287900'
p4048
sI4048
S'8312398'
p4049
sI4049
S'5340057'
p4050
sI4050
S'4850420'
p4051
sI4051
S'778520'
p4052
sI4052
S'6679238'
p4053
sI4053
S'7886398'
p4054
sI4054
S'8221235'
p4055
sI4055
S'4862940'
p4056
sI4056
S'7010032'
p4057
sI4057
S'3899371'
p4058
sI4058
S'8191958'
p4059
sI4059
S'6717367'
p4060
sI4060
S'851889'
p4061
sI4061
S'8617904'
p4062
sI4062
S'1212297'
p4063
sI4063
S'2096909'
p4064
sI4064
S'4456224'
p4065
sI4065
S'8716012'
p4066
sI4066
S'8781532'
p4067
sI4067
S'5242577'
p4068
sI4068
S'8781201'
p4069
sI4069
S'8712650'
p4070
sI4070
S'7399972'
p4071
sI4071
S'6880336'
p4072
sI4072
S'1276744'
p4073
sI4073
S'3701587'
p4074
sI4074
S'5708749'
p4075
sI4075
S'4759498'
p4076
sI4076
S'1080980'
p4077
sI4077
S'8846868'
p4078
sI4078
S'611445'
p4079
sI4079
S'8256165'
p4080
sI4080
S'8616550'
p4081
sI4081
S'2193653'
p4082
sI4082
S'7399805'
p4083
sI4083
S'2488520'
p4084
sI4084
S'3406006'
p4085
sI4085
S'424082'
p4086
sI4086
S'9042011'
p4087
sI4087
S'7698476'
p4088
sI4088
S'6715246'
p4089
sI4089
S'5306874'
p4090
sI4090
S'8321479'
p4091
sI4091
S'1112392'
p4092
sI4092
S'3668266'
p4093
sI4093
S'7698712'
p4094
sI4094
S'1407244'
p4095
sI4095
S'7337646'
p4096
sI4096
S'8091305'
p4097
sI4097
S'8684224'
p4098
sI4098
S'3534833'
p4099
sI4099
S'8104214'
p4100
sI4100
S'2848158'
p4101
sI4101
S'1504156'
p4102
sI4102
S'7698019'
p4103
sI4103
S'9048633'
p4104
sI4104
S'6910758'
p4105
sI4105
S'8384129'
p4106
sI4106
S'8647310'
p4107
sI4107
S'3241118'
p4108
sI4108
S'7476075'
p4109
sI4109
S'8352783'
p4110
sI4110
S'6910444'
p4111
sI4111
S'8155582'
p4112
sI4112
S'7074225'
p4113
sI4113
S'61333'
p4114
sI4114
S'7074518'
p4115
sI4115
S'3665765'
p4116
sI4116
S'8890309'
p4117
sI4117
S'7958872'
p4118
sI4118
S'5173405'
p4119
sI4119
S'3895419'
p4120
sI4120
S'6836928'
p4121
sI4121
S'8383955'
p4122
sI4122
S'1731973'
p4123
sI4123
S'8525286'
p4124
sI4124
S'1764459'
p4125
sI4125
S'3469030'
p4126
sI4126
S'806199'
p4127
sI4127
S'7826527'
p4128
sI4128
S'3042315'
p4129
sI4129
S'7826207'
p4130
sI4130
S'7273579'
p4131
sI4131
S'5433922'
p4132
sI4132
S'1937845'
p4133
sI4133
S'6437918'
p4134
sI4134
S'5729230'
p4135
sI4135
S'7367603'
p4136
sI4136
S'256920'
p4137
sI4137
S'616517'
p4138
sI4138
S'8349744'
p4139
sI4139
S'7792514'
p4140
sI4140
S'7333736'
p4141
sI4141
S'3636189'
p4142
sI4142
S'6317833'
p4143
sI4143
S'7202561'
p4144
sI4144
S'7532500'
p4145
sI4145
S'6416029'
p4146
sI4146
S'7202063'
p4147
sI4147
S'25827'
p4148
sI4148
S'550932'
p4149
sI4149
S'6514679'
p4150
sI4150
S'59314'
p4151
sI4151
S'1860758'
p4152
sI4152
S'9135669'
p4153
sI4153
S'9168404'
p4154
sI4154
S'7562751'
p4155
sI4155
S'4646355'
p4156
sI4156
S'1892755'
p4157
sI4157
S'1892726'
p4158
sI4158
S'1892718'
p4159
sI4159
S'1892712'
p4160
sI4160
S'5333346'
p4161
sI4161
S'1892691'
p4162
sI4162
S'7004223'
p4163
sI4163
S'4743196'
p4164
sI4164
S'6279181'
p4165
sI4165
S'3924809'
p4166
sI4166
S'2187898'
p4167
sI4167
S'5988248'
p4168
sI4168
S'6348655'
p4169
sI4169
S'779575'
p4170
sI4170
S'9201156'
p4171
sI4171
S'3498308'
p4172
sI4172
S'8741183'
p4173
sI4173
S'7759236'
p4174
sI4174
S'6765256'
p4175
sI4175
S'6645106'
p4176
sI4176
S'7331969'
p4177
sI4177
S'8084772'
p4178
sI4178
S'4742342'
p4179
sI4179
S'3005627'
p4180
sI4180
S'7330834'
p4181
sI4181
S'7068352'
p4182
sI4182
S'4053678'
p4183
sI4183
S'4020855'
p4184
sI4184
S'8168515'
p4185
sI4185
S'626349'
p4186
sI4186
S'8443778'
p4187
sI4187
S'9098996'
p4188
sI4188
S'6994181'
p4189
sI4189
S'9099390'
p4190
sI4190
S'3102768'
p4191
sI4191
S'6604246'
p4192
sI4192
S'4379669'
p4193
sI4193
S'6542316'
p4194
sI4194
S'6377078'
p4195
sI4195
S'7840712'
p4196
sI4196
S'3199784'
p4197
sI4197
S'4510438'
p4198
sI4198
S'6181501'
p4199
sI4199
S'3985765'
p4200
sI4200
S'2154676'
p4201
sI4201
S'7918732'
p4202
sI4202
S'8212812'
p4203
sI4203
S'8868166'
p4204
sI4204
S'4575472'
p4205
sI4205
S'8016064'
p4206
sI4206
S'381083'
p4207
sI4207
S'4510299'
p4208
sI4208
S'1036818'
p4209
sI4209
S'2367338'
p4210
sI4210
S'9064233'
p4211
sI4211
S'6338517'
p4212
sI4212
S'8507444'
p4213
sI4213
S'1887699'
p4214
sI4214
S'8310192'
p4215
sI4215
S'7010081'
p4216
sI4216
S'4410709'
p4217
sI4217
S'8014898'
p4218
sI4218
S'8866658'
p4219
sI4219
S'6186258'
p4220
sI4220
S'1892709'
p4221
sI4221
S'117955'
p4222
sI4222
S'4836520'
p4223
sI4223
S'1892698'
p4224
sI4224
S'7849591'
p4225
sI4225
S'8407454'
p4226
sI4226
S'1892752'
p4227
sI4227
S'1329465'
p4228
sI4228
S'640352'
p4229
sI4229
S'7750962'
p4230
sI4230
S'8473134'
p4231
sI4231
S'7358354'
p4232
sI4232
S'8406815'
p4233
sI4233
S'8144647'
p4234
sI4234
S'7291104'
p4235
sI4235
S'7389186'
p4236
sI4236
S'1229606'
p4237
sI4237
S'17132'
p4238
sI4238
S'7717513'
p4239
sI4239
S'9028232'
p4240
sI4240
S'7225932'
p4241
sI4241
S'7389569'
p4242
sI4242
S'606555'
p4243
sI4243
S'958507'
p4244
sI4244
S'336054'
p4245
sI4245
S'1885088'
p4246
sI4246
S'7724644'
p4247
sI4247
S'8863339'
p4248
sI4248
S'9158201'
p4249
sI4249
S'7697664'
p4250
sI4250
S'1195220'
p4251
sI4251
S'7637533'
p4252
sI4252
S'5749923'
p4253
sI4253
S'8372043'
p4254
sI4254
S'2007101'
p4255
sI4255
S'3291890'
p4256
sI4256
S'5670039'
p4257
sI4257
S'8338871'
p4258
sI4258
S'7156847'
p4259
sI4259
S'3947013'
p4260
sI4260
S'472901'
p4261
sI4261
S'6240007'
p4262
sI4262
S'8992503'
p4263
sI4263
S'8304205'
p4264
sI4264
S'1783301'
p4265
sI4265
S'8926626'
p4266
sI4266
S'5551468'
p4267
sI4267
S'7485550'
p4268
sI4268
S'8271930'
p4269
sI4269
S'8632376'
p4270
sI4270
S'6567853'
p4271
sI4271
S'1881434'
p4272
sI4272
S'1226026'
p4273
sI4273
S'4720851'
p4274
sI4274
S'8598558'
p4275
sI4275
S'1356817'
p4276
sI4276
S'6140911'
p4277
sI4277
S'4633644'
p4278
sI4278
S'1815437'
p4279
sI4279
S'7516402'
p4280
sI4280
S'8084858'
p4281
sI4281
S'1913043'
p4282
sI4282
S'1912989'
p4283
sI4283
S'8761496'
p4284
sI4284
S'8259587'
p4285
sI4285
S'8204256'
p4286
sI4286
S'4566966'
p4287
sI4287
S'8193993'
p4288
sI4288
S'6479321'
p4289
sI4289
S'7516626'
p4290
sI4290
S'5386566'
p4291
sI4291
S'8597790'
p4292
sI4292
S'7220797'
p4293
sI4293
S'2825470'
p4294
sI4294
S'9116915'
p4295
sI4295
S'2895077'
p4296
sI4296
S'3780418'
p4297
sI4297
S'8760476'
p4298
sI4298
S'1059961'
p4299
sI4299
S'9186352'
p4300
sI4300
S'7843213'
p4301
sI4301
S'5057179'
p4302
sI4302
S'8084588'
p4303
sI4303
S'1747195'
p4304
sI4304
S'4172044'
p4305
sI4305
S'1584119'
p4306
sI4306
S'6424401'
p4307
sI4307
S'2959369'
p4308
sI4308
S'3877356'
p4309
sI4309
S'2927103'
p4310
sI4310
S'9120213'
p4311
sI4311
S'1321419'
p4312
sI4312
S'8211108'
p4313
sI4313
S'3319645'
p4314
sI4314
S'3614489'
p4315
sI4315
S'242008'
p4316
sI4316
S'2466755'
p4317
sI4317
S'1235783'
p4318
sI4318
S'5481377'
p4319
sI4319
S'6628140'
p4320
sI4320
S'7676542'
p4321
sI4321
S'7709298'
p4322
sI4322
S'9183764'
p4323
sI4323
S'1579190'
p4324
sI4324
S'1484030'
p4325
sI4325
S'6202517'
p4326
sI4326
S'5972451'
p4327
sI4327
S'8069489'
p4328
sI4328
S'6529376'
p4329
sI4329
S'9061762'
p4330
sI4330
S'2171072'
p4331
sI4331
S'1530807'
p4332
sI4332
S'6560800'
p4333
sI4333
S'3644191'
p4334
sI4334
S'3908237'
p4335
sI4335
S'4137053'
p4336
sI4336
S'7086037'
p4337
sI4337
S'6692153'
p4338
sI4338
S'4630076'
p4339
sI4339
S'7939649'
p4340
sI4340
S'762157'
p4341
sI4341
S'958749'
p4342
sI4342
S'8974827'
p4343
sI4343
S'5184693'
p4344
sI4344
S'695401'
p4345
sI4345
S'5807223'
p4346
sI4346
S'6691920'
p4347
sI4347
S'4791253'
p4348
sI4348
S'5670035'
p4349
sI4349
S'2071395'
p4350
sI4350
S'1056664'
p4351
sI4351
S'4923131'
p4352
sI4352
S'7904844'
p4353
sI4353
S'6168082'
p4354
sI4354
S'6856126'
p4355
sI4355
S'728486'
p4356
sI4356
S'7111917'
p4357
sI4357
S'9051469'
p4358
sI4358
S'7903768'
p4359
sI4359
S'9116643'
p4360
sI4360
S'9148890'
p4361
sI4361
S'7903633'
p4362
sI4362
S'5904746'
p4363
sI4363
S'8394091'
p4364
sI4364
S'8592046'
p4365
sI4365
S'7116091'
p4366
sI4366
S'1807493'
p4367
sI4367
S'6625407'
p4368
sI4368
S'5904481'
p4369
sI4369
S'6363151'
p4370
sI4370
S'7575510'
p4371
sI4371
S'8558468'
p4372
sI4372
S'7935868'
p4373
sI4373
S'8066920'
p4374
sI4374
S'8460123'
p4375
sI4375
S'4986629'
p4376
sI4376
S'8722165'
p4377
sI4377
S'3839657'
p4378
sI4378
S'3774124'
p4379
sI4379
S'4599405'
p4380
sI4380
S'7746121'
p4381
sI4381
S'7182660'
p4382
sI4382
S'5970237'
p4383
sI4383
S'8132816'
p4384
sI4384
S'8000427'
p4385
sI4385
S'4395878'
p4386
sI4386
S'7116936'
p4387
sI4387
S'2889509'
p4388
sI4388
S'497421'
p4389
sI4389
S'2036874'
p4390
sI4390
S'5607860'
p4391
sI4391
S'8065399'
p4392
sI4392
S'5673322'
p4393
sI4393
S'7644599'
p4394
sI4394
S'2101383'
p4395
sI4395
S'3183280'
p4396
sI4396
S'6591087'
p4397
sI4397
S'4558898'
p4398
sI4398
S'5670016'
p4399
sI4399
S'186358'
p4400
sI4400
S'7602776'
p4401
sI4401
S'7638501'
p4402
sI4402
S'9047498'
p4403
sI4403
S'5175347'
p4404
sI4404
S'2460904'
p4405
sI4405
S'6196541'
p4406
sI4406
S'6754197'
p4407
sI4407
S'1970050'
p4408
sI4408
S'7900975'
p4409
sI4409
S'2592518'
p4410
sI4410
S'6491207'
p4411
sI4411
S'6850797'
p4412
sI4412
S'1805743'
p4413
sI4413
S'7637145'
p4414
sI4414
S'9209978'
p4415
sI4415
S'8194126'
p4416
sI4416
S'7902889'
p4417
sI4417
S'4753256'
p4418
sI4418
S'9111387'
p4419
sI4419
S'9045849'
p4420
sI4420
S'3836537'
p4421
sI4421
S'8030796'
p4422
sI4422
S'6195746'
p4423
sI4423
S'8554974'
p4424
sI4424
S'5376450'
p4425
sI4425
S'8782124'
p4426
sI4426
S'5670029'
p4427
sI4427
S'1589545'
p4428
sI4428
S'8652501'
p4429
sI4429
S'2262616'
p4430
sI4430
S'5670030'
p4431
sI4431
S'5670032'
p4432
sI4432
S'5670027'
p4433
sI4433
S'5670024'
p4434
sI4434
S'5670020'
p4435
sI4435
S'5670011'
p4436
sI4436
S'5670010'
p4437
sI4437
S'4949963'
p4438
sI4438
S'5375021'
p4439
sI4439
S'7439398'
p4440
sI4440
S'8651483'
p4441
sI4441
S'4129398'
p4442
sI4442
S'8455623'
p4443
sI4443
S'6423969'
p4444
sI4444
S'1836448'
p4445
sI4445
S'3441870'
p4446
sI4446
S'8472666'
p4447
sI4447
S'5539013'
p4448
sI4448
S'4309060'
p4449
sI4449
S'1725833'
p4450
sI4450
S'8159544'
p4451
sI4451
S'4718898'
p4452
sI4452
S'4128942'
p4453
sI4453
S'8503788'
p4454
sI4454
S'8525052'
p4455
sI4455
S'2917932'
p4456
sI4456
S'8815490'
p4457
sI4457
S'8487785'
p4458
sI4458
S'754475'
p4459
sI4459
S'6302508'
p4460
sI4460
S'492284'
p4461
sI4461
S'2818207'
p4462
sI4462
S'6422633'
p4463
sI4463
S'7602257'
p4464
sI4464
S'9175096'
p4465
sI4465
S'6029337'
p4466
sI4466
S'2853768'
p4467
sI4467
S'997356'
p4468
sI4468
S'77175'
p4469
sI4469
S'808726'
p4470
sI4470
S'183859'
p4471
sI4471
S'992676'
p4472
sI4472
S'2096756'
p4473
sI4473
S'6551929'
p4474
sI4474
S'5395767'
p4475
sI4475
S'1566146'
p4476
sI4476
S'7228686'
p4477
sI4477
S'2538348'
p4478
sI4478
S'4511292'
p4479
sI4479
S'4156390'
p4480
sI4480
S'1515722'
p4481
sI4481
S'4549488'
p4482
sI4482
S'7561641'
p4483
sI4483
S'3712976'
p4484
sI4484
S'5863674'
p4485
sI4485
S'7091102'
p4486
sI4486
S'190722'
p4487
sI4487
S'6782479'
p4488
sI4488
S'1669240'
p4489
sI4489
S'2586472'
p4490
sI4490
S'7601779'
p4491
sI4491
S'7009654'
p4492
sI4492
S'6452357'
p4493
sI4493
S'2847155'
p4494
sI4494
S'2846226'
p4495
sI4495
S'829129'
p4496
sI4496
S'7760279'
p4497
sI4497
S'482592'
p4498
sI4498
S'8474452'
p4499
sI4499
S'7987834'
p4500
sI4500
S'3395051'
p4501
sI4501
S'5918090'
p4502
sI4502
S'1133372'
p4503
sI4503
S'2411142'
p4504
sI4504
S'4388398'
p4505
sI4505
S'4879719'
p4506
sI4506
S'3031785'
p4507
sI4507
S'1327619'
p4508
sI4508
S'2539953'
p4509
sI4509
S'4917724'
p4510
sI4510
S'8534457'
p4511
sI4511
S'8239370'
p4512
sI4512
S'7089833'
p4513
sI4513
S'1652301'
p4514
sI4514
S'7759317'
p4515
sI4515
S'41423'
p4516
sI4516
S'62519'
p4517
sI4517
S'4365969'
p4518
sI4518
S'7279839'
p4519
sI4519
S'4588212'
p4520
sI4520
S'8686898'
p4521
sI4521
S'6576304'
p4522
sI4522
S'2197345'
p4523
sI4523
S'2374361'
p4524
sI4524
S'1901954'
p4525
sI4525
S'3309722'
p4526
sI4526
S'150848'
p4527
sI4527
S'4745604'
p4528
sI4528
S'9059583'
p4529
sI4529
S'67818'
p4530
sI4530
S'516836'
p4531
sI4531
S'4745835'
p4532
sI4532
S'2770561'
p4533
sI4533
S'598271'
p4534
sI4534
S'3486460'
p4535
sI4535
S'24463'
p4536
sI4536
S'2770268'
p4537
sI4537
S'25662'
p4538
sI4538
S'1855096'
p4539
sI4539
S'1750093'
p4540
sI4540
S'1006997'
p4541
sI4541
S'7949668'
p4542
sI4542
S'8239934'
p4543
sI4543
S'2424297'
p4544
sI4544
S'5057927'
p4545
sI4545
S'9225'
p4546
sI4546
S'3884791'
p4547
sI4547
S'2124182'
p4548
sI4548
S'3205059'
p4549
sI4549
S'340429'
p4550
sI4550
S'6880173'
p4551
sI4551
S'602833'
p4552
sI4552
S'8583533'
p4553
sI4553
S'7949624'
p4554
sI4554
S'4679176'
p4555
sI4555
S'6743606'
p4556
sI4556
S'6473013'
p4557
sI4557
S'4092288'
p4558
sI4558
S'5490192'
p4559
sI4559
S'3963223'
p4560
sI4560
S'4070277'
p4561
sI4561
S'8508488'
p4562
sI4562
S'7134010'
p4563
sI4563
S'6673096'
p4564
sI4564
S'5186436'
p4565
sI4565
S'3570383'
p4566
sI4566
S'1844877'
p4567
sI4567
S'6749412'
p4568
sI4568
S'7513438'
p4569
sI4569
S'3705206'
p4570
sI4570
S'8184928'
p4571
sI4571
S'4210263'
p4572
sI4572
S'5949982'
p4573
sI4573
S'6544471'
p4574
sI4574
S'7156551'
p4575
sI4575
S'7361700'
p4576
sI4576
S'4502425'
p4577
sI4577
S'7224326'
p4578
sI4578
S'4403992'
p4579
sI4579
S'8733616'
p4580
sI4580
S'8306923'
p4581
sI4581
S'839419'
p4582
sI4582
S'6660084'
p4583
sI4583
S'935967'
p4584
sI4584
S'3790877'
p4585
sI4585
S'1906681'
p4586
sI4586
S'1393189'
p4587
sI4587
S'945636'
p4588
sI4588
S'7902505'
p4589
sI4589
S'2790637'
p4590
sI4590
S'392543'
p4591
sI4591
S'7951037'
p4592
sI4592
S'4324534'
p4593
sI4593
S'228433'
p4594
sI4594
S'3877462'
p4595
sI4595
S'4324832'
p4596
sI4596
S'4898658'
p4597
sI4597
S'3465396'
p4598
sI4598
S'228265'
p4599
sI4599
S'7305114'
p4600
sI4600
S'948066'
p4601
sI4601
S'980783'
p4602
sI4602
S'4778396'
p4603
sI4603
S'3132578'
p4604
sI4604
S'1340875'
p4605
sI4605
S'1340755'
p4606
sI4606
S'4387775'
p4607
sI4607
S'8975238'
p4608
sI4608
S'2355859'
p4609
sI4609
S'8581778'
p4610
sI4610
S'8647278'
p4611
sI4611
S'3994686'
p4612
sI4612
S'3467259'
p4613
sI4613
S'7386838'
p4614
sI4614
S'6516876'
p4615
sI4615
S'683190'
p4616
sI4616
S'825819'
p4617
sI4617
S'6672905'
p4618
sI4618
S'4713319'
p4619
sI4619
S'5630741'
p4620
sI4620
S'4122671'
p4621
sI4621
S'3363113'
p4622
sI4622
S'7612134'
p4623
sI4623
S'8627753'
p4624
sI4624
S'2483405'
p4625
sI4625
S'4872729'
p4626
sI4626
S'1533378'
p4627
sI4627
S'1205687'
p4628
sI4628
S'6611377'
p4629
sI4629
S'2056100'
p4630
sI4630
S'288213'
p4631
sI4631
S'89616'
p4632
sI4632
S'115356'
p4633
sI4633
S'8151985'
p4634
sI4634
S'4989457'
p4635
sI4635
S'252867'
p4636
sI4636
S'2349483'
p4637
sI4637
S'1759087'
p4638
sI4638
S'4773944'
p4639
sI4639
S'8672997'
p4640
sI4640
S'8017538'
p4641
sI4641
S'8049455'
p4642
sI4642
S'3962590'
p4643
sI4643
S'7360699'
p4644
sI4644
S'7327920'
p4645
sI4645
S'7163507'
p4646
sI4646
S'8386721'
p4647
sI4647
S'2508480'
p4648
sI4648
S'3361047'
p4649
sI4649
S'4179454'
p4650
sI4650
S'6473215'
p4651
sI4651
S'4638176'
p4652
sI4652
S'7718281'
p4653
sI4653
S'7577826'
p4654
sI4654
S'6472998'
p4655
sI4655
S'6898966'
p4656
sI4656
S'5128208'
p4657
sI4657
S'7998178'
p4658
sI4658
S'7094579'
p4659
sI4659
S'3850524'
p4660
sI4660
S'8700165'
p4661
sI4661
S'1197026'
p4662
sI4662
S'6813075'
p4663
sI4663
S'8371265'
p4664
sI4664
S'2591947'
p4665
sI4665
S'8273260'
p4666
sI4666
S'6938507'
p4667
sI4667
S'1260834'
p4668
sI4668
S'2187031'
p4669
sI4669
S'2465556'
p4670
sI4670
S'440058'
p4671
sI4671
S'3415670'
p4672
sI4672
S'9157104'
p4673
sI4673
S'47592'
p4674
sI4674
S'899499'
p4675
sI4675
S'3225725'
p4676
sI4676
S'6273036'
p4677
sI4677
S'7725690'
p4678
sI4678
S'6732121'
p4679
sI4679
S'6142161'
p4680
sI4680
S'144185'
p4681
sI4681
S'8417986'
p4682
sI4682
S'45084'
p4683
sI4683
S'13027'
p4684
sI4684
S'6795922'
p4685
sI4685
S'4993669'
p4686
sI4686
S'2699786'
p4687
sI4687
S'209357'
p4688
sI4688
S'1454407'
p4689
sI4689
S'5960227'
p4690
sI4690
S'405236'
p4691
sI4691
S'12006'
p4692
sI4692
S'7023745'
p4693
sI4693
S'487019'
p4694
sI4694
S'699723'
p4695
sI4695
S'2272556'
p4696
sI4696
S'8365952'
p4697
sI4697
S'5154656'
p4698
sI4698
S'7055126'
p4699
sI4699
S'533627'
p4700
sI4700
S'205842'
p4701
sI4701
S'2060464'
p4702
sI4702
S'862201'
p4703
sI4703
S'631658'
p4704
sI4704
S'4694544'
p4705
sI4705
S'42577'
p4706
sI4706
S'531503'
p4707
sI4707
S'596462'
p4708
sI4708
S'728686'
p4709
sI4709
S'5068275'
p4710
sI4710
S'7663569'
p4711
sI4711
S'9132965'
p4712
sI4712
S'175872'
p4713
sI4713
S'7182761'
p4714
sI4714
S'8950937'
p4715
sI4715
S'7968806'
p4716
sI4716
S'1578597'
p4717
sI4717
S'6002282'
p4718
sI4718
S'33577'
p4719
sI4719
S'33578'
p4720
sI4720
S'44512'
p4721
sI4721
S'1577582'
p4722
sI4722
S'1151545'
p4723
sI4723
S'4232988'
p4724
sI4724
S'496226'
p4725
sI4725
S'1113087'
p4726
sI4726
S'8523340'
p4727
sI4727
S'1117643'
p4728
sI4728
S'5049541'
p4729
sI4729
S'7638111'
p4730
sI4730
S'6936417'
p4731
sI4731
S'6163821'
p4732
sI4732
S'3378522'
p4733
sI4733
S'5126203'
p4734
sI4734
S'2558057'
p4735
sI4735
S'6785012'
p4736
sI4736
S'5966461'
p4737
sI4737
S'6446590'
p4738
sI4738
S'7957587'
p4739
sI4739
S'8193185'
p4740
sI4740
S'9110686'
p4741
sI4741
S'8365732'
p4742
sI4742
S'2943995'
p4743
sI4743
S'230017'
p4744
sI4744
S'2414140'
p4745
sI4745
S'4228444'
p4746
sI4746
S'1539723'
p4747
sI4747
S'6554831'
p4748
sI4748
S'4745933'
p4749
sI4749
S'918341'
p4750
sI4750
S'8290464'
p4751
sI4751
S'1935521'
p4752
sI4752
S'256148'
p4753
sI4753
S'1130812'
p4754
sI4754
S'2471457'
p4755
sI4755
S'3218306'
p4756
sI4756
S'1678121'
p4757
sI4757
S'8274904'
p4758
sI4758
S'1827177'
p4759
sI4759
S'7268938'
p4760
sI4760
S'1323983'
p4761
sI4761
S'5606842'
p4762
sI4762
S'5884735'
p4763
sI4763
S'8734033'
p4764
sI4764
S'2066085'
p4765
sI4765
S'114401'
p4766
sI4766
S'1261074'
p4767
sI4767
S'2677288'
p4768
sI4768
S'9010894'
p4769
sI4769
S'1456267'
p4770
sI4770
S'1138097'
p4771
sI4771
S'334339'
p4772
sI4772
S'6643579'
p4773
sI4773
S'1557203'
p4774
sI4774
S'55338'
p4775
sI4775
S'7988313'
p4776
sI4776
S'3157541'
p4777
sI4777
S'3262665'
p4778
sI4778
S'6248632'
p4779
sI4779
S'8301090'
p4780
sI4780
S'9097223'
p4781
sI4781
S'7093451'
p4782
sI4782
S'225933'
p4783
sI4783
S'8887553'
p4784
sI4784
S'1113230'
p4785
sI4785
S'7618503'
p4786
sI4786
S'7418450'
p4787
sI4787
S'9032327'
p4788
sI4788
S'7116381'
p4789
sI4789
S'9092593'
p4790
sI4790
S'1450899'
p4791
sI4791
S'3895951'
p4792
sI4792
S'6951814'
p4793
sI4793
S'276009'
p4794
sI4794
S'929468'
p4795
sI4795
S'1094948'
p4796
sI4796
S'6705264'
p4797
sI4797
S'6896339'
p4798
sI4798
S'2108694'
p4799
sI4799
S'6092049'
p4800
sI4800
S'2479366'
p4801
sI4801
S'8838817'
p4802
sI4802
S'2123241'
p4803
sI4803
S'2515611'
p4804
sI4804
S'4122750'
p4805
sI4805
S'4782281'
p4806
sI4806
S'352165'
p4807
sI4807
S'488359'
p4808
sI4808
S'8237460'
p4809
sI4809
S'20486'
p4810
sI4810
S'4356478'
p4811
sI4811
S'343045'
p4812
sI4812
S'6793767'
p4813
sI4813
S'4699970'
p4814
sI4814
S'8629033'
p4815
sI4815
S'845082'
p4816
sI4816
S'5137537'
p4817
sI4817
S'1462428'
p4818
sI4818
S'2527150'
p4819
sI4819
S'1332907'
p4820
sI4820
S'2612741'
p4821
sI4821
S'3479419'
p4822
sI4822
S'870532'
p4823
sI4823
S'1582356'
p4824
sI4824
S'531494'
p4825
sI4825
S'7365694'
p4826
sI4826
S'8169181'
p4827
sI4827
S'8406322'
p4828
sI4828
S'3111016'
p4829
sI4829
S'1949446'
p4830
sI4830
S'175427'
p4831
sI4831
S'3334906'
p4832
sI4832
S'4894416'
p4833
sI4833
S'2072133'
p4834
sI4834
S'3821954'
p4835
sI4835
S'2978994'
p4836
sI4836
S'962688'
p4837
sI4837
S'5083565'
p4838
sI4838
S'2508540'
p4839
sI4839
S'5454959'
p4840
sI4840
S'7834039'
p4841
sI4841
S'4880988'
p4842
sI4842
S'6747672'
p4843
sI4843
S'6799365'
p4844
sI4844
S'4851049'
p4845
sI4845
S'7843330'
p4846
sI4846
S'210150'
p4847
sI4847
S'7479166'
p4848
sI4848
S'7694536'
p4849
sI4849
S'1827776'
p4850
sI4850
S'4613015'
p4851
sI4851
S'4567556'
p4852
sI4852
S'7711514'
p4853
sI4853
S'8277517'
p4854
sI4854
S'7206070'
p4855
sI4855
S'6364788'
p4856
sI4856
S'7886634'
p4857
sI4857
S'408471'
p4858
sI4858
S'677207'
p4859
sI4859
S'5299630'
p4860
sI4860
S'6529917'
p4861
sI4861
S'8580087'
p4862
sI4862
S'6713445'
p4863
sI4863
S'1382541'
p4864
sI4864
S'6544530'
p4865
sI4865
S'7181655'
p4866
sI4866
S'1751985'
p4867
sI4867
S'2189814'
p4868
sI4868
S'7621346'
p4869
sI4869
S'8972002'
p4870
sI4870
S'1535946'
p4871
sI4871
S'2586885'
p4872
sI4872
S'486751'
p4873
sI4873
S'4074316'
p4874
sI4874
S'342420'
p4875
sI4875
S'8133548'
p4876
sI4876
S'6275843'
p4877
sI4877
S'1303786'
p4878
sI4878
S'784071'
p4879
sI4879
S'1737155'
p4880
sI4880
S'4554531'
p4881
sI4881
S'9043358'
p4882
sI4882
S'5045601'
p4883
sI4883
S'1408281'
p4884
sI4884
S'8780965'
p4885
sI4885
S'1080408'
p4886
sI4886
S'7699276'
p4887
sI4887
S'4998450'
p4888
sI4888
S'1637052'
p4889
sI4889
S'2587269'
p4890
sI4890
S'3505185'
p4891
sI4891
S'1113068'
p4892
sI4892
S'8125411'
p4893
sI4893
S'1407881'
p4894
sI4894
S'8091505'
p4895
sI4895
S'7110280'
p4896
sI4896
S'7750220'
p4897
sI4897
S'7602945'
p4898
sI4898
S'2391772'
p4899
sI4899
S'2553496'
p4900
sI4900
S'8287824'
p4901
sI4901
S'8943055'
p4902
sI4902
S'7037700'
p4903
sI4903
S'3085195'
p4904
sI4904
S'1144121'
p4905
sI4905
S'3520817'
p4906
sI4906
S'3666944'
p4907
sI4907
S'291610'
p4908
sI4908
S'8778716'
p4909
sI4909
S'5468732'
p4910
sI4910
S'3549398'
p4911
sI4911
S'8590211'
p4912
sI4912
S'128230'
p4913
sI4913
S'8287266'
p4914
sI4914
S'7729217'
p4915
sI4915
S'4026206'
p4916
sI4916
S'5959874'
p4917
sI4917
S'5270817'
p4918
sI4918
S'159004'
p4919
sI4919
S'1042292'
p4920
sI4920
S'2550991'
p4921
sI4921
S'8941317'
p4922
sI4922
S'4526599'
p4923
sI4923
S'1043282'
p4924
sI4924
S'1960773'
p4925
sI4925
S'7007043'
p4926
sI4926
S'2190096'
p4927
sI4927
S'6712685'
p4928
sI4928
S'4352354'
p4929
sI4929
S'551851'
p4930
sI4930
S'6973631'
p4931
sI4931
S'4575595'
p4932
sI4932
S'7661435'
p4933
sI4933
S'6678252'
p4934
sI4934
S'5696036'
p4935
sI4935
S'27025'
p4936
sI4936
S'3664261'
p4937
sI4937
S'616120'
p4938
sI4938
S'517803'
p4939
sI4939
S'2385569'
p4940
sI4940
S'1335758'
p4941
sI4941
S'1271318'
p4942
sI4942
S'1331461'
p4943
sI4943
S'1828443'
p4944
sI4944
S'5105049'
p4945
sI4945
S'1434425'
p4946
sI4946
S'2586790'
p4947
sI4947
S'1769483'
p4948
sI4948
S'4879296'
p4949
sI4949
S'3073038'
p4950
sI4950
S'528551'
p4951
sI4951
S'6545660'
p4952
sI4952
S'8741015'
p4953
sI4953
S'3759368'
p4954
sI4954
S'23636'
p4955
sI4955
S'3793831'
p4956
sI4956
S'1433296'
p4957
sI4957
S'8937172'
p4958
sI4958
S'351881'
p4959
sI4959
S'6781551'
p4960
sI4960
S'2678415'
p4961
sI4961
S'7693590'
p4962
sI4962
S'1629807'
p4963
sI4963
S'8272389'
p4964
sI4964
S'2939849'
p4965
sI4965
S'4181776'
p4966
sI4966
S'6543813'
p4967
sI4967
S'121238'
p4968
sI4968
S'2250730'
p4969
sI4969
S'683794'
p4970
sI4970
S'6445978'
p4971
sI4971
S'7953240'
p4972
sI4972
S'4512569'
p4973
sI4973
S'664206'
p4974
sI4974
S'8354406'
p4975
sI4975
S'2987135'
p4976
sI4976
S'4184406'
p4977
sI4977
S'2578122'
p4978
sI4978
S'374997'
p4979
sI4979
S'8887962'
p4980
sI4980
S'283081'
p4981
sI4981
S'7098772'
p4982
sI4982
S'4575616'
p4983
sI4983
S'3428706'
p4984
sI4984
S'6967591'
p4985
sI4985
S'20483'
p4986
sI4986
S'5394389'
p4987
sI4987
S'4051455'
p4988
sI4988
S'479072'
p4989
sI4989
S'5590567'
p4990
sI4990
S'6639689'
p4991
sI4991
S'1290935'
p4992
sI4992
S'8540180'
p4993
sI4993
S'4596276'
p4994
sI4994
S'2105840'
p4995
sI4995
S'5394104'
p4996
sI4996
S'2739477'
p4997
sI4997
S'248728'
p4998
sI4998
S'2072697'
p4999
sI4999
S'1035018'
p5000
sI5000
S'806062'
p5001
sI5001
S'1428553'
p5002
sI5002
S'1263672'
p5003
sI5003
S'1270105'
p5004
sI5004
S'3426292'
p5005
sI5005
S'6622800'
p5006
sI5006
S'4639434'
p5007
sI5007
S'6001845'
p5008
sI5008
S'7480319'
p5009
sI5009
S'1689096'
p5010
sI5010
S'9090641'
p5011
sI5011
S'5686652'
p5012
sI5012
S'4573703'
p5013
sI5013
S'4573696'
p5014
sI5014
S'1433917'
p5015
sI5015
S'7653214'
p5016
sI5016
S'1614129'
p5017
sI5017
S'4513224'
p5018
sI5018
S'1762727'
p5019
sI5019
S'2777105'
p5020
sI5020
S'3686496'
p5021
sI5021
S'5489606'
p5022
sI5022
S'4701936'
p5023
sI5023
S'1327983'
p5024
sI5024
S'1678228'
p5025
sI5025
S'1033012'
p5026
sI5026
S'7226004'
p5027
sI5027
S'2933105'
p5028
sI5028
S'2988072'
p5029
sI5029
S'6108548'
p5030
sI5030
S'2243685'
p5031
sI5031
S'41055'
p5032
sI5032
S'1294222'
p5033
sI5033
S'3563061'
p5034
sI5034
S'1489857'
p5035
sI5035
S'834418'
p5036
sI5036
S'1588695'
p5037
sI5037
S'2407048'
p5038
sI5038
S'1777429'
p5039
sI5039
S'9157140'
p5040
sI5040
S'1750722'
p5041
sI5041
S'1226384'
p5042
sI5042
S'4311388'
p5043
sI5043
S'1292198'
p5044
sI5044
S'62347'
p5045
sI5045
S'767247'
p5046
sI5046
S'7582741'
p5047
sI5047
S'2936884'
p5048
sI5048
S'9156862'
p5049
sI5049
S'1915079'
p5050
sI5050
S'8697414'
p5051
sI5051
S'3748756'
p5052
sI5052
S'8456345'
p5053
sI5053
S'8737364'
p5054
sI5054
S'2371599'
p5055
sI5055
S'7576852'
p5056
sI5056
S'438967'
p5057
sI5057
S'1323660'
p5058
sI5058
S'5050177'
p5059
sI5059
S'1421774'
p5060
sI5060
S'5091663'
p5061
sI5061
S'7680348'
p5062
sI5062
S'12522'
p5063
sI5063
S'4206106'
p5064
sI5064
S'830982'
p5065
sI5065
S'3812792'
p5066
sI5066
S'7417270'
p5067
sI5067
S'3102139'
p5068
sI5068
S'1486760'
p5069
sI5069
S'5549826'
p5070
sI5070
S'5287680'
p5071
sI5071
S'929526'
p5072
sI5072
S'2551994'
p5073
sI5073
S'1092638'
p5074
sI5074
S'1673011'
p5075
sI5075
S'4225721'
p5076
sI5076
S'2737894'
p5077
sI5077
S'7997260'
p5078
sI5078
S'960668'
p5079
sI5079
S'1976419'
p5080
sI5080
S'796606'
p5081
sI5081
S'3811916'
p5082
sI5082
S'6822747'
p5083
sI5083
S'3754870'
p5084
sI5084
S'6660648'
p5085
sI5085
S'1614353'
p5086
sI5086
S'4825603'
p5087
sI5087
S'3319159'
p5088
sI5088
S'271505'
p5089
sI5089
S'4596210'
p5090
sI5090
S'1843662'
p5091
sI5091
S'1646806'
p5092
sI5092
S'893914'
p5093
sI5093
S'7348398'
p5094
sI5094
S'5547500'
p5095
sI5095
S'2345161'
p5096
sI5096
S'7742225'
p5097
sI5097
S'860932'
p5098
sI5098
S'6103791'
p5099
sI5099
S'1712789'
p5100
sI5100
S'6627450'
p5101
sI5101
S'1679392'
p5102
sI5102
S'3939412'
p5103
sI5103
S'269371'
p5104
sI5104
S'6210737'
p5105
sI5105
S'727969'
p5106
sI5106
S'8690577'
p5107
sI5107
S'1104362'
p5108
sI5108
S'8067937'
p5109
sI5109
S'5806937'
p5110
sI5110
S'5850380'
p5111
sI5111
S'138772'
p5112
sI5112
S'7204761'
p5113
sI5113
S'1678077'
p5114
sI5114
S'1677907'
p5115
sI5115
S'760328'
p5116
sI5116
S'8920813'
p5117
sI5117
S'3742189'
p5118
sI5118
S'1328186'
p5119
sI5119
S'5871042'
p5120
sI5120
S'6732047'
p5121
sI5121
S'7836955'
p5122
sI5122
S'3216656'
p5123
sI5123
S'3712200'
p5124
sI5124
S'789059'
p5125
sI5125
S'2660319'
p5126
sI5126
S'6526902'
p5127
sI5127
S'7968598'
p5128
sI5128
S'8984318'
p5129
sI5129
S'1709741'
p5130
sI5130
S'5193972'
p5131
sI5131
S'1250955'
p5132
sI5132
S'6887043'
p5133
sI5133
S'5641815'
p5134
sI5134
S'7673433'
p5135
sI5135
S'3643650'
p5136
sI5136
S'1251570'
p5137
sI5137
S'2496719'
p5138
sI5138
S'1708978'
p5139
sI5139
S'1304068'
p5140
sI5140
S'1309354'
p5141
sI5141
S'148559'
p5142
sI5142
S'1792132'
p5143
sI5143
S'2299245'
p5144
sI5144
S'987637'
p5145
sI5145
S'5838639'
p5146
sI5146
S'792370'
p5147
sI5147
S'3380328'
p5148
sI5148
S'528726'
p5149
sI5149
S'2166037'
p5150
sI5150
S'4395156'
p5151
sI5151
S'8130678'
p5152
sI5152
S'4461284'
p5153
sI5153
S'757797'
p5154
sI5154
S'1999524'
p5155
sI5155
S'1150867'
p5156
sI5156
S'7603122'
p5157
sI5157
S'2756129'
p5158
sI5158
S'5967397'
p5159
sI5159
S'4735571'
p5160
sI5160
S'7680375'
p5161
sI5161
S'364397'
p5162
sI5162
S'5884561'
p5163
sI5163
S'8878603'
p5164
sI5164
S'4631597'
p5165
sI5165
S'3116428'
p5166
sI5166
S'907152'
p5167
sI5167
S'4917308'
p5168
sI5168
S'5605968'
p5169
sI5169
S'4524627'
p5170
sI5170
S'920094'
p5171
sI5171
S'1280424'
p5172
sI5172
S'166199'
p5173
sI5173
S'526075'
p5174
sI5174
S'6063800'
p5175
sI5175
S'1246891'
p5176
sI5176
S'4359853'
p5177
sI5177
S'551865'
p5178
sI5178
S'213216'
p5179
sI5179
S'6156195'
p5180
sI5180
S'8391670'
p5181
sI5181
S'6523893'
p5182
sI5182
S'691023'
p5183
sI5183
S'887516'
p5184
sI5184
S'2244546'
p5185
sI5185
S'4418675'
p5186
sI5186
S'723583'
p5187
sI5187
S'66610'
p5188
sI5188
S'1967089'
p5189
sI5189
S'1054197'
p5190
sI5190
S'8192628'
p5191
sI5191
S'7275084'
p5192
sI5192
S'7764531'
p5193
sI5193
S'2721222'
p5194
sI5194
S'947147'
p5195
sI5195
S'1279292'
p5196
sI5196
S'7995834'
p5197
sI5197
S'295240'
p5198
sI5198
S'1212638'
p5199
sI5199
S'3637514'
p5200
sI5200
S'361230'
p5201
sI5201
S'99094'
p5202
sI5202
S'4817059'
p5203
sI5203
S'7340055'
p5204
sI5204
S'9011556'
p5205
sI5205
S'1212746'
p5206
sI5206
S'7128710'
p5207
sI5207
S'8968348'
p5208
sI5208
S'2172411'
p5209
sI5209
S'23630'
p5210
sI5210
S'24535'
p5211
sI5211
S'148769'
p5212
sI5212
S'7692645'
p5213
sI5213
S'1845152'
p5214
sI5214
S'1955794'
p5215
sI5215
S'8580025'
p5216
sI5216
S'4222197'
p5217
sI5217
S'2339428'
p5218
sI5218
S'760609'
p5219
sI5219
S'7884875'
p5220
sI5220
S'2968738'
p5221
sI5221
S'4832849'
p5222
sI5222
S'4832436'
p5223
sI5223
S'4725008'
p5224
sI5224
S'8646447'
p5225
sI5225
S'6289646'
p5226
sI5226
S'7718807'
p5227
sI5227
S'2177440'
p5228
sI5228
S'2530808'
p5229
sI5229
S'5173185'
p5230
sI5230
S'8294203'
p5231
sI5231
S'1897346'
p5232
sI5232
S'1208800'
p5233
sI5233
S'7699738'
p5234
sI5234
S'1724819'
p5235
sI5235
S'8283480'
p5236
sI5236
S'6643496'
p5237
sI5237
S'56720'
p5238
sI5238
S'7528564'
p5239
sI5239
S'6019953'
p5240
sI5240
S'415088'
p5241
sI5241
S'4445540'
p5242
sI5242
S'55636'
p5243
sI5243
S'1365610'
p5244
sI5244
S'2839794'
p5245
sI5245
S'52650'
p5246
sI5246
S'2510224'
p5247
sI5247
S'658588'
p5248
sI5248
S'1428590'
p5249
sI5249
S'7774616'
p5250
sI5250
S'3290706'
p5251
sI5251
S'8994315'
p5252
sI5252
S'799025'
p5253
sI5253
S'3258040'
p5254
sI5254
S'964048'
p5255
sI5255
S'2995611'
p5256
sI5256
S'8336631'
p5257
sI5257
S'1252638'
p5258
sI5258
S'8589765'
p5259
sI5259
S'172943'
p5260
sI5260
S'893754'
p5261
sI5261
S'5415450'
p5262
sI5262
S'1263815'
p5263
sI5263
S'74450'
p5264
sI5264
S'2835681'
p5265
sI5265
S'6430646'
p5266
sI5266
S'3676814'
p5267
sI5267
S'269756'
p5268
sI5268
S'8067807'
p5269
sI5269
S'7445110'
p5270
sI5270
S'596576'
p5271
sI5271
S'5391417'
p5272
sI5272
S'4855194'
p5273
sI5273
S'4099555'
p5274
sI5274
S'267820'
p5275
sI5275
S'1180517'
p5276
sI5276
S'1005631'
p5277
sI5277
S'4625015'
p5278
sI5278
S'4099682'
p5279
sI5279
S'8391970'
p5280
sI5280
S'2395993'
p5281
sI5281
S'8195144'
p5282
sI5282
S'2853351'
p5283
sI5283
S'3343809'
p5284
sI5284
S'2628957'
p5285
sI5285
S'6852080'
p5286
sI5286
S'41172'
p5287
sI5287
S'59702'
p5288
sI5288
S'8408710'
p5289
sI5289
S'82919'
p5290
sI5290
S'140568'
p5291
sI5291
S'1191586'
p5292
sI5292
S'702819'
p5293
sI5293
S'849858'
p5294
sI5294
S'381217'
p5295
sI5295
S'1203172'
p5296
sI5296
S'5998790'
p5297
sI5297
S'6396841'
p5298
sI5298
S'1953596'
p5299
sI5299
S'5162669'
p5300
sI5300
S'5386625'
p5301
sI5301
S'8369007'
p5302
sI5302
S'6648062'
p5303
sI5303
S'9156081'
p5304
sI5304
S'995535'
p5305
sI5305
S'7416809'
p5306
sI5306
S'8306294'
p5307
sI5307
S'710042'
p5308
sI5308
S'6348142'
p5309
sI5309
S'2754912'
p5310
sI5310
S'3938209'
p5311
sI5311
S'8484422'
p5312
sI5312
S'1950075'
p5313
sI5313
S'6065461'
p5314
sI5314
S'3992580'
p5315
sI5315
S'8034027'
p5316
sI5316
S'4120646'
p5317
sI5317
S'1056356'
p5318
sI5318
S'4710280'
p5319
sI5319
S'2518781'
p5320
sI5320
S'6923940'
p5321
sI5321
S'1013866'
p5322
sI5322
S'5316917'
p5323
sI5323
S'873469'
p5324
sI5324
S'1594318'
p5325
sI5325
S'3578499'
p5326
sI5326
S'6305014'
p5327
sI5327
S'7281127'
p5328
sI5328
S'867530'
p5329
sI5329
S'901892'
p5330
sI5330
S'3486130'
p5331
sI5331
S'1613321'
p5332
sI5332
S'3293492'
p5333
sI5333
S'377301'
p5334
sI5334
S'6262273'
p5335
sI5335
S'229319'
p5336
sI5336
S'7760724'
p5337
sI5337
S'7927795'
p5338
sI5338
S'4845964'
p5339
sI5339
S'783633'
p5340
sI5340
S'1336450'
p5341
sI5341
S'6495004'
p5342
sI5342
S'870705'
p5343
sI5343
S'6609509'
p5344
sI5344
S'8612902'
p5345
sI5345
S'216042'
p5346
sI5346
S'1652064'
p5347
sI5347
S'1157129'
p5348
sI5348
S'1487849'
p5349
sI5349
S'4344298'
p5350
sI5350
S'8081819'
p5351
sI5351
S'4604303'
p5352
sI5352
S'3553700'
p5353
sI5353
S'531151'
p5354
sI5354
S'2545771'
p5355
sI5355
S'1884746'
p5356
sI5356
S'517548'
p5357
sI5357
S'6043052'
p5358
sI5358
S'1210326'
p5359
sI5359
S'13422'
p5360
sI5360
S'7092207'
p5361
sI5361
S'8054331'
p5362
sI5362
S'6045869'
p5363
sI5363
S'5002958'
p5364
sI5364
S'4343283'
p5365
sI5365
S'766516'
p5366
sI5366
S'1456153'
p5367
sI5367
S'4580190'
p5368
sI5368
S'2254974'
p5369
sI5369
S'2904128'
p5370
sI5370
S'980397'
p5371
sI5371
S'2242739'
p5372
sI5372
S'958331'
p5373
sI5373
S'7544803'
p5374
sI5374
S'4471474'
p5375
sI5375
S'3334970'
p5376
sI5376
S'29373'
p5377
sI5377
S'244396'
p5378
sI5378
S'1861424'
p5379
sI5379
S'3415751'
p5380
sI5380
S'604999'
p5381
sI5381
S'7730652'
p5382
sI5382
S'2062696'
p5383
sI5383
S'2011311'
p5384
sI5384
S'6627935'
p5385
sI5385
S'711648'
p5386
sI5386
S'4679737'
p5387
sI5387
S'4887782'
p5388
sI5388
S'8310831'
p5389
sI5389
S'1408932'
p5390
sI5390
S'4882295'
p5391
sI5391
S'8556635'
p5392
sI5392
S'131015'
p5393
sI5393
S'4455761'
p5394
sI5394
S'7699710'
p5395
sI5395
S'883937'
p5396
sI5396
S'5536512'
p5397
sI5397
S'32414'
p5398
sI5398
S'4816543'
p5399
sI5399
S'130665'
p5400
sI5400
S'7502419'
p5401
sI5401
S'3569750'
p5402
sI5402
S'64564'
p5403
sI5403
S'654279'
p5404
sI5404
S'4093967'
p5405
sI5405
S'3123536'
p5406
sI5406
S'1275748'
p5407
sI5407
S'7181279'
p5408
sI5408
S'2455313'
p5409
sI5409
S'6453006'
p5410
sI5410
S'6813442'
p5411
sI5411
S'490931'
p5412
sI5412
S'2488837'
p5413
sI5413
S'2028997'
p5414
sI5414
S'2356554'
p5415
sI5415
S'5469480'
p5416
sI5416
S'586715'
p5417
sI5417
S'6157285'
p5418
sI5418
S'8149547'
p5419
sI5419
S'1124499'
p5420
sI5420
S'915058'
p5421
sI5421
S'2950300'
p5422
sI5422
S'7762483'
p5423
sI5423
S'1832091'
p5424
sI5424
S'6851085'
p5425
sI5425
S'6853366'
p5426
sI5426
S'8253883'
p5427
sI5427
S'3895335'
p5428
sI5428
S'2223743'
p5429
sI5429
S'8154711'
p5430
sI5430
S'1404326'
p5431
sI5431
S'8383915'
p5432
sI5432
S'1970756'
p5433
sI5433
S'3042598'
p5434
sI5434
S'1273125'
p5435
sI5435
S'5749969'
p5436
sI5436
S'7367786'
p5437
sI5437
S'4157192'
p5438
sI5438
S'3042127'
p5439
sI5439
S'3402060'
p5440
sI5440
S'8153202'
p5441
sI5441
S'6115685'
p5442
sI5442
S'305463'
p5443
sI5443
S'3041694'
p5444
sI5444
S'1566388'
p5445
sI5445
S'4023924'
p5446
sI5446
S'763431'
p5447
sI5447
S'5105636'
p5448
sI5448
S'4105892'
p5449
sI5449
S'1959880'
p5450
sI5450
S'42408'
p5451
sI5451
S'7279762'
p5452
sI5452
S'6438454'
p5453
sI5453
S'6512986'
p5454
sI5454
S'1728496'
p5455
sI5455
S'4480958'
p5456
sI5456
S'4285232'
p5457
sI5457
S'8839867'
p5458
sI5458
S'189068'
p5459
sI5459
S'1039779'
p5460
sI5460
S'57561'
p5461
sI5461
S'5005492'
p5462
sI5462
S'9166136'
p5463
sI5463
S'8117530'
p5464
sI5464
S'646275'
p5465
sI5465
S'4807817'
p5466
sI5466
S'4709496'
p5467
sI5467
S'23611'
p5468
sI5468
S'648086'
p5469
sI5469
S'351950'
p5470
sI5470
S'8674283'
p5471
sI5471
S'8903641'
p5472
sI5472
S'5167688'
p5473
sI5473
S'7034854'
p5474
sI5474
S'7493513'
p5475
sI5475
S'8117174'
p5476
sI5476
S'3095010'
p5477
sI5477
S'6808480'
p5478
sI5478
S'1300810'
p5479
sI5479
S'9066717'
p5480
sI5480
S'8542341'
p5481
sI5481
S'1890397'
p5482
sI5482
S'840986'
p5483
sI5483
S'1037251'
p5484
sI5484
S'7197549'
p5485
sI5485
S'8443583'
p5486
sI5486
S'873149'
p5487
sI5487
S'4936367'
p5488
sI5488
S'250263'
p5489
sI5489
S'9196798'
p5490
sI5490
S'513230'
p5491
sI5491
S'6935709'
p5492
sI5492
S'2838412'
p5493
sI5493
S'4476390'
p5494
sI5494
S'53280'
p5495
sI5495
S'7065061'
p5496
sI5496
S'183334'
p5497
sI5497
S'8670897'
p5498
sI5498
S'7851656'
p5499
sI5499
S'1985338'
p5500
sI5500
S'7292878'
p5501
sI5501
S'3263219'
p5502
sI5502
S'7097067'
p5503
sI5503
S'6937952'
p5504
sI5504
S'8112539'
p5505
sI5505
S'3656251'
p5506
sI5506
S'379418'
p5507
sI5507
S'5914638'
p5508
sI5508
S'8568826'
p5509
sI5509
S'2146224'
p5510
sI5510
S'7402986'
p5511
sI5511
S'4559312'
p5512
sI5512
S'5980518'
p5513
sI5513
S'2178509'
p5514
sI5514
S'1138542'
p5515
sI5515
S'6438705'
p5516
sI5516
S'8272898'
p5517
sI5517
S'348580'
p5518
sI5518
S'7173279'
p5519
sI5519
S'2342200'
p5520
sI5520
S'3390065'
p5521
sI5521
S'1226596'
p5522
sI5522
S'4540731'
p5523
sI5523
S'8762966'
p5524
sI5524
S'111523'
p5525
sI5525
S'6469686'
p5526
sI5526
S'3946395'
p5527
sI5527
S'5780753'
p5528
sI5528
S'4076586'
p5529
sI5529
S'1620279'
p5530
sI5530
S'2175930'
p5531
sI5531
S'1094481'
p5532
sI5532
S'6992084'
p5533
sI5533
S'9187534'
p5534
sI5534
S'7939511'
p5535
sI5535
S'77932'
p5536
sI5536
S'144043'
p5537
sI5537
S'176092'
p5538
sI5538
S'1525886'
p5539
sI5539
S'3114518'
p5540
sI5540
S'4075971'
p5541
sI5541
S'8499631'
p5542
sI5542
S'766282'
p5543
sI5543
S'5811707'
p5544
sI5544
S'4533652'
p5545
sI5545
S'7810254'
p5546
sI5546
S'9155146'
p5547
sI5547
S'5582695'
p5548
sI5548
S'9187155'
p5549
sI5549
S'8695631'
p5550
sI5550
S'11395'
p5551
sI5551
S'6761476'
p5552
sI5552
S'830330'
p5553
sI5553
S'2764137'
p5554
sI5554
S'830162'
p5555
sI5555
S'6604564'
p5556
sI5556
S'4597977'
p5557
sI5557
S'7383022'
p5558
sI5558
S'4720278'
p5559
sI5559
S'4794816'
p5560
sI5560
S'7054427'
p5561
sI5561
S'238658'
p5562
sI5562
S'2500662'
p5563
sI5563
S'1287106'
p5564
sI5564
S'7348839'
p5565
sI5565
S'467507'
p5566
sI5566
S'42403'
p5567
sI5567
S'435377'
p5568
sI5568
S'2007231'
p5569
sI5569
S'271879'
p5570
sI5570
S'1482730'
p5571
sI5571
S'173637'
p5572
sI5572
S'6560870'
p5573
sI5573
S'531504'
p5574
sI5574
S'7904184'
p5575
sI5575
S'3842327'
p5576
sI5576
S'1056688'
p5577
sI5577
S'629475'
p5578
sI5578
S'72382'
p5579
sI5579
S'7936656'
p5580
sI5580
S'7150142'
p5581
sI5581
S'7854509'
p5582
sI5582
S'7150096'
p5583
sI5583
S'3317402'
p5584
sI5584
S'3021203'
p5585
sI5585
S'2890120'
p5586
sI5586
S'137546'
p5587
sI5587
S'8001012'
p5588
sI5588
S'6821152'
p5589
sI5589
S'6439768'
p5590
sI5590
S'6165516'
p5591
sI5591
S'38935'
p5592
sI5592
S'5478334'
p5593
sI5593
S'5858'
p5594
sI5594
S'2037464'
p5595
sI5595
S'1579304'
p5596
sI5596
S'3283236'
p5597
sI5597
S'6560014'
p5598
sI5598
S'6822070'
p5599
sI5599
S'6558237'
p5600
sI5600
S'2234170'
p5601
sI5601
S'823380'
p5602
sI5602
S'430776'
p5603
sI5603
S'102458'
p5604
sI5604
S'1740843'
p5605
sI5605
S'4263551'
p5606
sI5606
S'3878104'
p5607
sI5607
S'6688004'
p5608
sI5608
S'1245838'
p5609
sI5609
S'2919574'
p5610
sI5610
S'854313'
p5611
sI5611
S'3836052'
p5612
sI5612
S'6195258'
p5613
sI5613
S'5933101'
p5614
sI5614
S'6555650'
p5615
sI5615
S'6784867'
p5616
sI5616
S'2984463'
p5617
sI5617
S'5933430'
p5618
sI5618
S'3639050'
p5619
sI5619
S'3376895'
p5620
sI5620
S'6292635'
p5621
sI5621
S'3081324'
p5622
sI5622
S'1995316'
p5623
sI5623
S'7998278'
p5624
sI5624
S'690900'
p5625
sI5625
S'2034352'
p5626
sI5626
S'2001534'
p5627
sI5627
S'8848449'
p5628
sI5628
S'4031875'
p5629
sI5629
S'3376512'
p5630
sI5630
S'7973781'
p5631
sI5631
S'394575'
p5632
sI5632
S'132441'
p5633
sI5633
S'1574191'
p5634
sI5634
S'6881666'
p5635
sI5635
S'8028540'
p5636
sI5636
S'6881547'
p5637
sI5637
S'33615'
p5638
sI5638
S'6881452'
p5639
sI5639
S'4033431'
p5640
sI5640
S'8225137'
p5641
sI5641
S'6881625'
p5642
sI5642
S'5955449'
p5643
sI5643
S'175102'
p5644
sI5644
S'1821335'
p5645
sI5645
S'7594165'
p5646
sI5646
S'8792956'
p5647
sI5647
S'2997693'
p5648
sI5648
S'6662231'
p5649
sI5649
S'3826011'
p5650
sI5650
S'9150693'
p5651
sI5651
S'7678243'
p5652
sI5652
S'8205650'
p5653
sI5653
S'8907507'
p5654
sI5654
S'4636362'
p5655
sI5655
S'2621402'
p5656
sI5656
S'4538533'
p5657
sI5657
S'5114942'
p5658
sI5658
S'1301260'
p5659
sI5659
S'8353311'
p5660
sI5660
S'786268'
p5661
sI5661
S'3767600'
p5662
sI5662
S'5666454'
p5663
sI5663
S'8942318'
p5664
sI5664
S'9008416'
p5665
sI5665
S'5272750'
p5666
sI5666
S'9167652'
p5667
sI5667
S'6184456'
p5668
sI5668
S'4578713'
p5669
sI5669
S'6656023'
p5670
sI5670
S'113211'
p5671
sI5671
S'4546229'
p5672
sI5672
S'2118052'
p5673
sI5673
S'971069'
p5674
sI5674
S'8408931'
p5675
sI5675
S'741168'
p5676
sI5676
S'8408841'
p5677
sI5677
S'4902365'
p5678
sI5678
S'838660'
p5679
sI5679
S'5851961'
p5680
sI5680
S'2968326'
p5681
sI5681
S'2935400'
p5682
sI5682
S'9029205'
p5683
sI5683
S'8733312'
p5684
sI5684
S'8503697'
p5685
sI5685
S'5028569'
p5686
sI5686
S'308885'
p5687
sI5687
S'931213'
p5688
sI5688
S'4897143'
p5689
sI5689
S'3972480'
p5690
sI5690
S'864265'
p5691
sI5691
S'6008099'
p5692
sI5692
S'4632383'
p5693
sI5693
S'8989534'
p5694
sI5694
S'8236377'
p5695
sI5695
S'8614819'
p5696
sI5696
S'7874267'
p5697
sI5697
S'2925398'
p5698
sI5698
S'435391'
p5699
sI5699
S'696827'
p5700
sI5700
S'1024202'
p5701
sI5701
S'6135618'
p5702
sI5702
S'5773488'
p5703
sI5703
S'4887587'
p5704
sI5704
S'1478914'
p5705
sI5705
S'8950002'
p5706
sI5706
S'4887154'
p5707
sI5707
S'6196851'
p5708
sI5708
S'4983944'
p5709
sI5709
S'3506870'
p5710
sI5710
S'9143616'
p5711
sI5711
S'3741064'
p5712
sI5712
S'786506'
p5713
sI5713
S'5957618'
p5714
sI5714
S'7390129'
p5715
sI5715
S'1589361'
p5716
sI5716
S'7181819'
p5717
sI5717
S'4517932'
p5718
sI5718
S'258873'
p5719
sI5719
S'3917135'
p5720
sI5720
S'9133739'
p5721
sI5721
S'5496658'
p5722
sI5722
S'1822972'
p5723
sI5723
S'1686784'
p5724
sI5724
S'5558505'
p5725
sI5725
S'2417760'
p5726
sI5726
S'6146017'
p5727
sI5727
S'3908374'
p5728
sI5728
S'3534885'
p5729
sI5729
S'6006021'
p5730
sI5730
S'7923146'
p5731
sI5731
S'1504609'
p5732
sI5732
S'2236226'
p5733
sI5733
S'2244652'
p5734
sI5734
S'8082364'
p5735
sI5735
S'8900586'
p5736
sI5736
S'9073164'
p5737
sI5737
S'1174758'
p5738
sI5738
S'6089521'
p5739
sI5739
S'4518031'
p5740
sI5740
S'2503555'
p5741
sI5741
S'5496781'
p5742
sI5742
S'6675827'
p5743
sI5743
S'1171568'
p5744
sI5744
S'7205925'
p5745
sI5745
S'1810026'
p5746
sI5746
S'98354'
p5747
sI5747
S'6854717'
p5748
sI5748
S'3355593'
p5749
sI5749
S'6661783'
p5750
sI5750
S'1108614'
p5751
sI5751
S'8900123'
p5752
sI5752
S'1892949'
p5753
sI5753
S'7115191'
p5754
sI5754
S'8672706'
p5755
sI5755
S'4182201'
p5756
sI5756
S'1324199'
p5757
sI5757
S'6574880'
p5758
sI5758
S'8843718'
p5759
sI5759
S'7699603'
p5760
sI5760
S'1178260'
p5761
sI5761
S'1177752'
p5762
sI5762
S'8699557'
p5763
sI5763
S'4519757'
p5764
sI5764
S'8092097'
p5765
sI5765
S'6257006'
p5766
sI5766
S'7825522'
p5767
sI5767
S'3306409'
p5768
sI5768
S'3634228'
p5769
sI5769
S'4518952'
p5770
sI5770
S'4191242'
p5771
sI5771
S'7760015'
p5772
sI5772
S'3534845'
p5773
sI5773
S'3534798'
p5774
sI5774
S'6679960'
p5775
sI5775
S'748570'
p5776
sI5776
S'1174537'
p5777
sI5777
S'5788099'
p5778
sI5778
S'1763953'
p5779
sI5779
S'8841788'
p5780
sI5780
S'1107727'
p5781
sI5781
S'3138747'
p5782
sI5782
S'7071689'
p5783
sI5783
S'5192271'
p5784
sI5784
S'7921984'
p5785
sI5785
S'8675466'
p5786
sI5786
S'8935338'
p5787
sI5787
S'6662128'
p5788
sI5788
S'9131836'
p5789
sI5789
S'3560997'
p5790
sI5790
S'7951872'
p5791
sI5791
S'7067087'
p5792
sI5792
S'644091'
p5793
sI5793
S'7132809'
p5794
sI5794
S'4085355'
p5795
sI5795
S'7131071'
p5796
sI5796
S'8064432'
p5797
sI5797
S'4902444'
p5798
sI5798
S'7874331'
p5799
sI5799
S'4607177'
p5800
sI5800
S'4638432'
p5801
sI5801
S'7914478'
p5802
sI5802
S'1329386'
p5803
sI5803
S'4670847'
p5804
sI5804
S'9060828'
p5805
sI5805
S'4669700'
p5806
sI5806
S'1026195'
p5807
sI5807
S'5749798'
p5808
sI5808
S'8240368'
p5809
sI5809
S'734839'
p5810
sI5810
S'9025940'
p5811
sI5811
S'2503669'
p5812
sI5812
S'9057318'
p5813
sI5813
S'7616801'
p5814
sI5814
S'1717096'
p5815
sI5815
S'1028258'
p5816
sI5816
S'1159284'
p5817
sI5817
S'2142263'
p5818
sI5818
S'8794820'
p5819
sI5819
S'6042087'
p5820
sI5820
S'3288881'
p5821
sI5821
S'5123884'
p5822
sI5822
S'8597269'
p5823
sI5823
S'6007925'
p5824
sI5824
S'8163114'
p5825
sI5825
S'3415171'
p5826
sI5826
S'698730'
p5827
sI5827
S'992913'
p5828
sI5828
S'4519780'
p5829
sI5829
S'6627743'
p5830
sI5830
S'4759937'
p5831
sI5831
S'958700'
p5832
sI5832
S'1678763'
p5833
sI5833
S'957584'
p5834
sI5834
S'4430996'
p5835
sI5835
S'900450'
p5836
sI5836
S'5850381'
p5837
sI5837
S'138619'
p5838
sI5838
S'6658626'
p5839
sI5839
S'4890230'
p5840
sI5840
S'562593'
p5841
sI5841
S'637403'
p5842
sI5842
S'8066397'
p5843
sI5843
S'8524982'
p5844
sI5844
S'8688715'
p5845
sI5845
S'8393793'
p5846
sI5846
S'968037'
p5847
sI5847
S'7968749'
p5848
sI5848
S'8328969'
p5849
sI5849
S'7116305'
p5850
sI5850
S'8033201'
p5851
sI5851
S'7115664'
p5852
sI5852
S'4526415'
p5853
sI5853
S'7998127'
p5854
sI5854
S'2527308'
p5855
sI5855
S'7869049'
p5856
sI5856
S'7343277'
p5857
sI5857
S'8652929'
p5858
sI5858
S'6215433'
p5859
sI5859
S'7308933'
p5860
sI5860
S'4754412'
p5861
sI5861
S'2785853'
p5862
sI5862
S'1066247'
p5863
sI5863
S'6586433'
p5864
sI5864
S'3093543'
p5865
sI5865
S'8955891'
p5866
sI5866
S'200663'
p5867
sI5867
S'5919500'
p5868
sI5868
S'5685295'
p5869
sI5869
S'9023603'
p5870
sI5870
S'5686550'
p5871
sI5871
S'4424915'
p5872
sI5872
S'4251491'
p5873
sI5873
S'4504244'
p5874
sI5874
S'8276435'
p5875
sI5875
S'4045632'
p5876
sI5876
S'8310729'
p5877
sI5877
S'8338131'
p5878
sI5878
S'5396666'
p5879
sI5879
S'9198209'
p5880
sI5880
S'4976141'
p5881
sI5881
S'3371071'
p5882
sI5882
S'9198086'
p5883
sI5883
S'2585920'
p5884
sI5884
S'9198155'
p5885
sI5885
S'7887924'
p5886
sI5886
S'8712780'
p5887
sI5887
S'6289378'
p5888
sI5888
S'4716426'
p5889
sI5889
S'8134220'
p5890
sI5890
S'7826496'
p5891
sI5891
S'2248206'
p5892
sI5892
S'5039770'
p5893
sI5893
S'1484149'
p5894
sI5894
S'6910494'
p5895
sI5895
S'1324274'
p5896
sI5896
S'7597670'
p5897
sI5897
S'4258257'
p5898
sI5898
S'2642722'
p5899
sI5899
S'3522119'
p5900
sI5900
S'7368176'
p5901
sI5901
S'3761446'
p5902
sI5902
S'3789600'
p5903
sI5903
S'8612964'
p5904
sI5904
S'1632521'
p5905
sI5905
S'1897863'
p5906
sI5906
S'7252014'
p5907
sI5907
S'8311972'
p5908
sI5908
S'539199'
p5909
sI5909
S'7226513'
p5910
sI5910
S'5729018'
p5911
sI5911
S'4881805'
p5912
sI5912
S'7461959'
p5913
sI5913
S'7818604'
p5914
sI5914
S'7220035'
p5915
sI5915
S'5465462'
p5916
sI5916
S'8153369'
p5917
sI5917
S'683171'
p5918
sI5918
S'6222873'
p5919
sI5919
S'4286111'
p5920
sI5920
S'717046'
p5921
sI5921
S'6976228'
p5922
sI5922
S'5989770'
p5923
sI5923
S'286231'
p5924
sI5924
S'7072674'
p5925
sI5925
S'3696157'
p5926
sI5926
S'4286316'
p5927
sI5927
S'8116322'
p5928
sI5928
S'8194600'
p5929
sI5929
S'7842474'
p5930
sI5930
S'6157504'
p5931
sI5931
S'4226825'
p5932
sI5932
S'2441167'
p5933
sI5933
S'4117647'
p5934
sI5934
S'6585994'
p5935
sI5935
S'8322485'
p5936
sI5936
S'5405387'
p5937
sI5937
S'8812785'
p5938
sI5938
S'2554923'
p5939
sI5939
S'1800182'
p5940
sI5940
S'8524869'
p5941
sI5941
S'7989636'
p5942
sI5942
S'8943178'
p5943
sI5943
S'8385246'
p5944
sI5944
S'6157286'
p5945
sI5945
S'7402385'
p5946
sI5946
S'8090484'
p5947
sI5947
S'5666413'
p5948
sI5948
S'9106228'
p5949
sI5949
S'1635606'
p5950
sI5950
S'6157476'
p5951
sI5951
S'3699824'
p5952
sI5952
S'3272782'
p5953
sI5953
S'3829744'
p5954
sI5954
S'1273686'
p5955
sI5955
S'7728785'
p5956
sI5956
S'8613437'
p5957
sI5957
S'1110346'
p5958
sI5958
S'8612967'
p5959
sI5959
S'6155285'
p5960
sI5960
S'1764111'
p5961
sI5961
S'616204'
p5962
sI5962
S'4548319'
p5963
sI5963
S'4942264'
p5964
sI5964
S'7563700'
p5965
sI5965
S'6187408'
p5966
sI5966
S'6481618'
p5967
sI5967
S'4679350'
p5968
sI5968
S'2352761'
p5969
sI5969
S'1336921'
p5970
sI5970
S'3767297'
p5971
sI5971
S'7562345'
p5972
sI5972
S'6742626'
p5973
sI5973
S'4284912'
p5974
sI5974
S'5005798'
p5975
sI5975
S'6448545'
p5976
sI5976
S'5005692'
p5977
sI5977
S'1893200'
p5978
sI5978
S'6185592'
p5979
sI5979
S'7921496'
p5980
sI5980
S'1007157'
p5981
sI5981
S'24018'
p5982
sI5982
S'8736665'
p5983
sI5983
S'6185990'
p5984
sI5984
S'7921921'
p5985
sI5985
S'2546845'
p5986
sI5986
S'2449024'
p5987
sI5987
S'3399253'
p5988
sI5988
S'2677798'
p5989
sI5989
S'9198324'
p5990
sI5990
S'7264978'
p5991
sI5991
S'9198267'
p5992
sI5992
S'1956414'
p5993
sI5993
S'1267696'
p5994
sI5994
S'939917'
p5995
sI5995
S'6215548'
p5996
sI5996
S'1530745'
p5997
sI5997
S'3726164'
p5998
sI5998
S'6182708'
p5999
sI5999
S'8410929'
p6000
sI6000
S'6182453'
p6001
sI6001
S'447943'
p6002
sI6002
S'3364232'
p6003
sI6003
S'4576640'
p6004
sI6004
S'5298341'
p6005
sI6005
S'2253836'
p6006
sI6006
S'2544937'
p6007
sI6007
S'3265792'
p6008
sI6008
S'21334'
p6009
sI6009
S'6182572'
p6010
sI6010
S'480915'
p6011
sI6011
S'4576076'
p6012
sI6012
S'545585'
p6013
sI6013
S'4575906'
p6014
sI6014
S'1627259'
p6015
sI6015
S'3592131'
p6016
sI6016
S'3821508'
p6017
sI6017
S'7360388'
p6018
sI6018
S'4476536'
p6019
sI6019
S'52713'
p6020
sI6020
S'5031660'
p6021
sI6021
S'1264641'
p6022
sI6022
S'8670914'
p6023
sI6023
S'4312700'
p6024
sI6024
S'7195538'
p6025
sI6025
S'4541189'
p6026
sI6026
S'609575'
p6027
sI6027
S'3378396'
p6028
sI6028
S'2084031'
p6029
sI6029
S'6277066'
p6030
sI6030
S'9095673'
p6031
sI6031
S'9095601'
p6032
sI6032
S'4965866'
p6033
sI6033
S'7226841'
p6034
sI6034
S'4769581'
p6035
sI6035
S'4341975'
p6036
sI6036
S'1097849'
p6037
sI6037
S'6799283'
p6038
sI6038
S'4440859'
p6039
sI6039
S'8274354'
p6040
sI6040
S'1195173'
p6041
sI6041
S'5127678'
p6042
sI6042
S'6077601'
p6043
sI6043
S'6186132'
p6044
sI6044
S'5456448'
p6045
sI6045
S'3030931'
p6046
sI6046
S'8207812'
p6047
sI6047
S'8502592'
p6048
sI6048
S'5160242'
p6049
sI6049
S'6855000'
p6050
sI6050
S'6157066'
p6051
sI6051
S'8240011'
p6052
sI6052
S'6993593'
p6053
sI6053
S'7419367'
p6054
sI6054
S'2241961'
p6055
sI6055
S'5512869'
p6056
sI6056
S'5039986'
p6057
sI6057
S'6184452'
p6058
sI6058
S'8926150'
p6059
sI6059
S'3401501'
p6060
sI6060
S'4857370'
p6061
sI6061
S'1159840'
p6062
sI6062
S'4730528'
p6063
sI6063
S'6337026'
p6064
sI6064
S'700928'
p6065
sI6065
S'9095247'
p6066
sI6066
S'5468900'
p6067
sI6067
S'9188057'
p6068
sI6068
S'6182817'
p6069
sI6069
S'798014'
p6070
sI6070
S'8891103'
p6071
sI6071
S'4401445'
p6072
sI6072
S'2140313'
p6073
sI6073
S'4803500'
p6074
sI6074
S'2672319'
p6075
sI6075
S'2664560'
p6076
sI6076
S'6662081'
p6077
sI6077
S'10842'
p6078
sI6078
S'4598278'
p6079
sI6079
S'9048008'
p6080
sI6080
S'6202232'
p6081
sI6081
S'2139948'
p6082
sI6082
S'1896736'
p6083
sI6083
S'8758259'
p6084
sI6084
S'1386586'
p6085
sI6085
S'2237314'
p6086
sI6086
S'41609'
p6087
sI6087
S'533896'
p6088
sI6088
S'7087412'
p6089
sI6089
S'1713391'
p6090
sI6090
S'8758432'
p6091
sI6091
S'6988943'
p6092
sI6092
S'3907799'
p6093
sI6093
S'4629268'
p6094
sI6094
S'7806079'
p6095
sI6095
S'2104437'
p6096
sI6096
S'5774421'
p6097
sI6097
S'5643334'
p6098
sI6098
S'9116705'
p6099
sI6099
S'4058147'
p6100
sI6100
S'5086062'
p6101
sI6101
S'1679108'
p6102
sI6102
S'5840328'
p6103
sI6103
S'8275061'
p6104
sI6104
S'1841832'
p6105
sI6105
S'7772800'
p6106
sI6106
S'2333234'
p6107
sI6107
S'8788595'
p6108
sI6108
S'2432711'
p6109
sI6109
S'7904891'
p6110
sI6110
S'8066317'
p6111
sI6111
S'1971246'
p6112
sI6112
S'6494324'
p6113
sI6113
S'2037652'
p6114
sI6114
S'8132474'
p6115
sI6115
S'2430730'
p6116
sI6116
S'1256942'
p6117
sI6117
S'8557370'
p6118
sI6118
S'6361669'
p6119
sI6119
S'7279165'
p6120
sI6120
S'5193'
p6121
sI6121
S'6132191'
p6122
sI6122
S'7967149'
p6123
sI6123
S'2626245'
p6124
sI6124
S'2757282'
p6125
sI6125
S'8327078'
p6126
sI6126
S'4686423'
p6127
sI6127
S'8719572'
p6128
sI6128
S'9015148'
p6129
sI6129
S'232492'
p6130
sI6130
S'4558259'
p6131
sI6131
S'1411216'
p6132
sI6132
S'2558071'
p6133
sI6133
S'1378398'
p6134
sI6134
S'4687921'
p6135
sI6135
S'5117701'
p6136
sI6136
S'4058557'
p6137
sI6137
S'231129'
p6138
sI6138
S'4623211'
p6139
sI6139
S'9044976'
p6140
sI6140
S'8717210'
p6141
sI6141
S'918769'
p6142
sI6142
S'1999381'
p6143
sI6143
S'7596794'
p6144
sI6144
S'7602645'
p6145
sI6145
S'132662'
p6146
sI6146
S'1502017'
p6147
sI6147
S'1278848'
p6148
sI6148
S'8323915'
p6149
sI6149
S'7897161'
p6150
sI6150
S'2944843'
p6151
sI6151
S'1615158'
p6152
sI6152
S'1828245'
p6153
sI6153
S'271647'
p6154
sI6154
S'7984883'
p6155
sI6155
S'7262134'
p6156
sI6156
S'6117147'
p6157
sI6157
S'7691977'
p6158
sI6158
S'7750327'
p6159
sI6159
S'7692170'
p6160
sI6160
S'455783'
p6161
sI6161
S'5914215'
p6162
sI6162
S'8285219'
p6163
sI6163
S'2975454'
p6164
sI6164
S'4024518'
p6165
sI6165
S'7345059'
p6166
sI6166
S'6958831'
p6167
sI6167
S'7345040'
p6168
sI6168
S'4979264'
p6169
sI6169
S'7584289'
p6170
sI6170
S'1036276'
p6171
sI6171
S'3891160'
p6172
sI6172
S'3257886'
p6173
sI6173
S'7389541'
p6174
sI6174
S'4287481'
p6175
sI6175
S'1337098'
p6176
sI6176
S'1984709'
p6177
sI6177
S'8051735'
p6178
sI6178
S'7615879'
p6179
sI6179
S'5027016'
p6180
sI6180
S'4013746'
p6181
sI6181
S'655919'
p6182
sI6182
S'1980028'
p6183
sI6183
S'7852469'
p6184
sI6184
S'7037159'
p6185
sI6185
S'2302408'
p6186
sI6186
S'2305140'
p6187
sI6187
S'6245649'
p6188
sI6188
S'1104524'
p6189
sI6189
S'6387021'
p6190
sI6190
S'5211153'
p6191
sI6191
S'8666251'
p6192
sI6192
S'278592'
p6193
sI6193
S'8290010'
p6194
sI6194
S'982298'
p6195
sI6195
S'4520680'
p6196
sI6196
S'4520661'
p6197
sI6197
S'4520658'
p6198
sI6198
S'3112427'
p6199
sI6199
S'6421172'
p6200
sI6200
S'7108798'
p6201
sI6201
S'7207426'
p6202
sI6202
S'2980184'
p6203
sI6203
S'7403226'
p6204
sI6204
S'7665146'
p6205
sI6205
S'8320256'
p6206
sI6206
S'7885495'
p6207
sI6207
S'3783895'
p6208
sI6208
S'6055808'
p6209
sI6209
S'8842990'
p6210
sI6210
S'2747383'
p6211
sI6211
S'1142101'
p6212
sI6212
S'8153250'
p6213
sI6213
S'5760881'
p6214
sI6214
S'4023930'
p6215
sI6215
S'4841923'
p6216
sI6216
S'2614717'
p6217
sI6217
S'4482478'
p6218
sI6218
S'8479161'
p6219
sI6219
S'1446016'
p6220
sI6220
S'8609876'
p6221
sI6221
S'3923169'
p6222
sI6222
S'3759246'
p6223
sI6223
S'1500056'
p6224
sI6224
S'8018902'
p6225
sI6225
S'251792'
p6226
sI6226
S'4774742'
p6227
sI6227
S'1301267'
p6228
sI6228
S'1725853'
p6229
sI6229
S'21232'
p6230
sI6230
S'1135287'
p6231
sI6231
S'53715'
p6232
sI6232
S'6934874'
p6233
sI6233
S'7441942'
p6234
sI6234
S'6934867'
p6235
sI6235
S'4419778'
p6236
sI6236
S'9065029'
p6237
sI6237
S'5164874'
p6238
sI6238
S'838499'
p6239
sI6239
S'6015077'
p6240
sI6240
S'7259880'
p6241
sI6241
S'1164939'
p6242
sI6242
S'5785980'
p6243
sI6243
S'1033754'
p6244
sI6244
S'7259606'
p6245
sI6245
S'1164523'
p6246
sI6246
S'8306627'
p6247
sI6247
S'6046459'
p6248
sI6248
S'4243837'
p6249
sI6249
S'2016198'
p6250
sI6250
S'7514053'
p6251
sI6251
S'3100417'
p6252
sI6252
S'6078336'
p6253
sI6253
S'6732755'
p6254
sI6254
S'3292643'
p6255
sI6255
S'998701'
p6256
sI6256
S'1489501'
p6257
sI6257
S'7247746'
p6258
sI6258
S'6436250'
p6259
sI6259
S'9155685'
p6260
sI6260
S'7451648'
p6261
sI6261
S'504643'
p6262
sI6262
S'1978982'
p6263
sI6263
S'1503989'
p6264
sI6264
S'274334'
p6265
sI6265
S'4959980'
p6266
sI6266
S'3675302'
p6267
sI6267
S'1645712'
p6268
sI6268
S'7678792'
p6269
sI6269
S'2959642'
p6270
sI6270
S'7514059'
p6271
sI6271
S'7514058'
p6272
sI6272
S'7054235'
p6273
sI6273
S'2368133'
p6274
sI6274
S'2513786'
p6275
sI6275
S'6005221'
p6276
sI6276
S'565622'
p6277
sI6277
S'6955160'
p6278
sI6278
S'958573'
p6279
sI6279
S'1351783'
p6280
sI6280
S'7806968'
p6281
sI6281
S'2956406'
p6282
sI6282
S'727866'
p6283
sI6283
S'5905163'
p6284
sI6284
S'6494663'
p6285
sI6285
S'2430258'
p6286
sI6286
S'7967799'
p6287
sI6287
S'1218290'
p6288
sI6288
S'1218273'
p6289
sI6289
S'1218268'
p6290
sI6290
S'1218252'
p6291
sI6291
S'1218239'
p6292
sI6292
S'7641416'
p6293
sI6293
S'7674061'
p6294
sI6294
S'1644684'
p6295
sI6295
S'7345041'
p6296
sI6296
S'7345053'
p6297
sI6297
S'7345030'
p6298
sI6298
S'7345039'
p6299
sI6299
S'7345033'
p6300
sI6300
S'7345037'
p6301
sI6301
S'7345025'
p6302
sI6302
S'7345023'
p6303
sI6303
S'7345018'
p6304
sI6304
S'9048923'
p6305
sI6305
S'1446325'
p6306
sI6306
S'1446043'
p6307
sI6307
S'2101365'
p6308
sI6308
S'6557736'
p6309
sI6309
S'1267701'
p6310
sI6310
S'6327788'
p6311
sI6311
S'7933807'
p6312
sI6312
S'3082327'
p6313
sI6313
S'8882782'
p6314
sI6314
S'1130826'
p6315
sI6315
S'3277849'
p6316
sI6316
S'8421984'
p6317
sI6317
S'297897'
p6318
sI6318
S'3114387'
p6319
sI6319
S'99647'
p6320
sI6320
S'3312490'
p6321
sI6321
S'5146120'
p6322
sI6322
S'4129626'
p6323
sI6323
S'99104'
p6324
sI6324
S'8759990'
p6325
sI6325
S'5213058'
p6326
sI6326
S'9173896'
p6327
sI6327
S'212125'
p6328
sI6328
S'593253'
p6329
sI6329
S'45956'
p6330
sI6330
S'4462025'
p6331
sI6331
S'3271517'
p6332
sI6332
S'3946500'
p6333
sI6333
S'8117519'
p6334
sI6334
S'1259388'
p6335
sI6335
S'1336998'
p6336
sI6336
S'25463'
p6337
sI6337
S'7329639'
p6338
sI6338
S'9187000'
p6339
sI6339
S'7329782'
p6340
sI6340
S'5263501'
p6341
sI6341
S'6628985'
p6342
sI6342
S'3289683'
p6343
sI6343
S'2468465'
p6344
sI6344
S'6994719'
p6345
sI6345
S'4317501'
p6346
sI6346
S'5852066'
p6347
sI6347
S'9023447'
p6348
sI6348
S'1596696'
p6349
sI6349
S'9132221'
p6350
sI6350
S'7601854'
p6351
sI6351
S'4897595'
p6352
sI6352
S'9180885'
p6353
sI6353
S'2280258'
p6354
sI6354
S'708731'
p6355
sI6355
S'564074'
p6356
sI6356
S'111988'
p6357
sI6357
S'8956488'
p6358
sI6358
S'4834681'
p6359
sI6359
S'7094961'
p6360
sI6360
S'2748298'
p6361
sI6361
S'4469853'
p6362
sI6362
S'9073041'
p6363
sI6363
S'7840632'
p6364
sI6364
S'10824'
p6365
sI6365
S'2366789'
p6366
sI6366
S'9107980'
p6367
sI6367
S'4485074'
p6368
sI6368
S'9172460'
p6369
sI6369
S'7072662'
p6370
sI6370
S'8973198'
p6371
sI6371
S'515104'
p6372
sI6372
S'4957143'
p6373
sI6373
S'1531273'
p6374
sI6374
S'7161943'
p6375
sI6375
S'682134'
p6376
sI6376
S'253540'
p6377
sI6377
S'1731762'
p6378
sI6378
S'8595928'
p6379
sI6379
S'8105254'
p6380
sI6380
S'8343984'
p6381
sI6381
S'5263060'
p6382
sI6382
S'6481326'
p6383
sI6383
S'5835314'
p6384
sI6384
S'7417050'
p6385
sI6385
S'8777964'
p6386
sI6386
S'1606008'
p6387
sI6387
S'7198666'
p6388
sI6388
S'2717307'
p6389
sI6389
S'8303062'
p6390
sI6390
S'6401914'
p6391
sI6391
S'2081268'
p6392
sI6392
S'8009408'
p6393
sI6393
S'6647781'
p6394
sI6394
S'8227663'
p6395
sI6395
S'7437925'
p6396
sI6396
S'5258355'
p6397
sI6397
S'683603'
p6398
sI6398
S'4511659'
p6399
sI6399
S'7631519'
p6400
sI6400
S'1029621'
p6401
sI6401
S'4163607'
p6402
sI6402
S'980737'
p6403
sI6403
S'8775500'
p6404
sI6404
S'7597291'
p6405
sI6405
S'1870055'
p6406
sI6406
S'4736896'
p6407
sI6407
S'1598872'
p6408
sI6408
S'1156649'
p6409
sI6409
S'7620686'
p6410
sI6410
S'1363448'
p6411
sI6411
S'2371394'
p6412
sI6412
S'4183375'
p6413
sI6413
S'2033081'
p6414
sI6414
S'8739306'
p6415
sI6415
S'8014888'
p6416
sI6416
S'6425391'
p6417
sI6417
S'7984527'
p6418
sI6418
S'1614622'
p6419
sI6419
S'2412174'
p6420
sI6420
S'7783059'
p6421
sI6421
S'2142197'
p6422
sI6422
S'4084756'
p6423
sI6423
S'4744405'
p6424
sI6424
S'246959'
p6425
sI6425
S'5070961'
p6426
sI6426
S'8581293'
p6427
sI6427
S'3687152'
p6428
sI6428
S'8934525'
p6429
sI6429
S'7563581'
p6430
sI6430
S'1276589'
p6431
sI6431
S'8460474'
p6432
sI6432
S'2577727'
p6433
sI6433
S'1198949'
p6434
sI6434
S'5746657'
p6435
sI6435
S'6560386'
p6436
sI6436
S'6915290'
p6437
sI6437
S'5434273'
p6438
sI6438
S'4346898'
p6439
sI6439
S'5967901'
p6440
sI6440
S'5213718'
p6441
sI6441
S'4100124'
p6442
sI6442
S'7844031'
p6443
sI6443
S'837045'
p6444
sI6444
S'8845157'
p6445
sI6445
S'8593774'
p6446
sI6446
S'8118106'
p6447
sI6447
S'4950872'
p6448
sI6448
S'2447647'
p6449
sI6449
S'2614880'
p6450
sI6450
S'9049876'
p6451
sI6451
S'442349'
p6452
sI6452
S'2794622'
p6453
sI6453
S'4053366'
p6454
sI6454
S'8763822'
p6455
sI6455
S'1494185'
p6456
sI6456
S'2203022'
p6457
sI6457
S'6526129'
p6458
sI6458
S'4155352'
p6459
sI6459
S'8255582'
p6460
sI6460
S'7759829'
p6461
sI6461
S'3317591'
p6462
sI6462
S'1828458'
p6463
sI6463
S'7278586'
p6464
sI6464
S'7043404'
p6465
sI6465
S'7715045'
p6466
sI6466
S'26408'
p6467
sI6467
S'8908059'
p6468
sI6468
S'1696383'
p6469
sI6469
S'4614886'
p6470
sI6470
S'1084371'
p6471
sI6471
S'4759715'
p6472
sI6472
S'7693322'
p6473
sI6473
S'6659511'
p6474
sI6474
S'2022513'
p6475
sI6475
S'6643638'
p6476
sI6476
S'1460174'
p6477
sI6477
S'716641'
p6478
sI6478
S'3591813'
p6479
sI6479
S'2066449'
p6480
sI6480
S'4718531'
p6481
sI6481
S'8847285'
p6482
sI6482
S'2031532'
p6483
sI6483
S'1343385'
p6484
sI6484
S'8191854'
p6485
sI6485
S'3112708'
p6486
sI6486
S'3079929'
p6487
sI6487
S'8743545'
p6488
sI6488
S'949605'
p6489
sI6489
S'1441100'
p6490
sI6490
S'8355128'
p6491
sI6491
S'1932434'
p6492
sI6492
S'457862'
p6493
sI6493
S'2063405'
p6494
sI6494
S'4936887'
p6495
sI6495
S'4979571'
p6496
sI6496
S'8125277'
p6497
sI6497
S'3668820'
p6498
sI6498
S'3013427'
p6499
sI6499
S'8584000'
p6500
sI6500
S'4052091'
p6501
sI6501
S'4881136'
p6502
sI6502
S'3844037'
p6503
sI6503
S'8327489'
p6504
sI6504
S'3769585'
p6505
sI6505
S'8191438'
p6506
sI6506
S'5765371'
p6507
sI6507
S'8507481'
p6508
sI6508
S'7534758'
p6509
sI6509
S'1767569'
p6510
sI6510
S'1767543'
p6511
sI6511
S'5772013'
p6512
sI6512
S'1276953'
p6513
sI6513
S'7502832'
p6514
sI6514
S'3603425'
p6515
sI6515
S'4833101'
p6516
sI6516
S'8131371'
p6517
sI6517
S'653119'
p6518
sI6518
S'7600548'
p6519
sI6519
S'8071578'
p6520
sI6520
S'8386933'
p6521
sI6521
S'939407'
p6522
sI6522
S'1243472'
p6523
sI6523
S'7845599'
p6524
sI6524
S'4650719'
p6525
sI6525
S'1865406'
p6526
sI6526
S'4288062'
p6527
sI6527
S'4257302'
p6528
sI6528
S'2160078'
p6529
sI6529
S'6157762'
p6530
sI6530
S'8353194'
p6531
sI6531
S'2356626'
p6532
sI6532
S'9074064'
p6533
sI6533
S'8319971'
p6534
sI6534
S'7402440'
p6535
sI6535
S'9032503'
p6536
sI6536
S'783135'
p6537
sI6537
S'7707633'
p6538
sI6538
S'1864390'
p6539
sI6539
S'7369364'
p6540
sI6540
S'6525823'
p6541
sI6541
S'1471683'
p6542
sI6542
S'7563462'
p6543
sI6543
S'423063'
p6544
sI6544
S'3194392'
p6545
sI6545
S'7478508'
p6546
sI6546
S'4387948'
p6547
sI6547
S'3667009'
p6548
sI6548
S'1208778'
p6549
sI6549
S'4330861'
p6550
sI6550
S'4682194'
p6551
sI6551
S'6058411'
p6552
sI6552
S'1178281'
p6553
sI6553
S'1273709'
p6554
sI6554
S'4461197'
p6555
sI6555
S'7860581'
p6556
sI6556
S'3404097'
p6557
sI6557
S'4387067'
p6558
sI6558
S'578097'
p6559
sI6559
S'421056'
p6560
sI6560
S'1764449'
p6561
sI6561
S'7716327'
p6562
sI6562
S'7663294'
p6563
sI6563
S'257719'
p6564
sI6564
S'510500'
p6565
sI6565
S'9097743'
p6566
sI6566
S'5285725'
p6567
sI6567
S'8088428'
p6568
sI6568
S'6187113'
p6569
sI6569
S'8776392'
p6570
sI6570
S'7957152'
p6571
sI6571
S'9201955'
p6572
sI6572
S'4810969'
p6573
sI6573
S'4100473'
p6574
sI6574
S'4777677'
p6575
sI6575
S'1305478'
p6576
sI6576
S'4581486'
p6577
sI6577
S'875695'
p6578
sI6578
S'256113'
p6579
sI6579
S'256090'
p6580
sI6580
S'1861710'
p6581
sI6581
S'7989009'
p6582
sI6582
S'1304290'
p6583
sI6583
S'4493744'
p6584
sI6584
S'2746118'
p6585
sI6585
S'8153606'
p6586
sI6586
S'9005548'
p6587
sI6587
S'6613471'
p6588
sI6588
S'846294'
p6589
sI6589
S'845132'
p6590
sI6590
S'4875549'
p6591
sI6591
S'5364782'
p6592
sI6592
S'4059588'
p6593
sI6593
S'2483759'
p6594
sI6594
S'6481356'
p6595
sI6595
S'2172308'
p6596
sI6596
S'834226'
p6597
sI6597
S'4127412'
p6598
sI6598
S'4644853'
p6599
sI6599
S'2088912'
p6600
sI6600
S'5918708'
p6601
sI6601
S'832288'
p6602
sI6602
S'1827653'
p6603
sI6603
S'1827638'
p6604
sI6604
S'2319032'
p6605
sI6605
S'8118933'
p6606
sI6606
S'7201430'
p6607
sI6607
S'3531387'
p6608
sI6608
S'201579'
p6609
sI6609
S'187875'
p6610
sI6610
S'3628537'
p6611
sI6611
S'1531373'
p6612
sI6612
S'253373'
p6613
sI6613
S'4776261'
p6614
sI6614
S'8052931'
p6615
sI6615
S'2154686'
p6616
sI6616
S'8741008'
p6617
sI6617
S'7463032'
p6618
sI6618
S'1465706'
p6619
sI6619
S'9198795'
p6620
sI6620
S'9133262'
p6621
sI6621
S'1886260'
p6622
sI6622
S'7330883'
p6623
sI6623
S'6054817'
p6624
sI6624
S'253643'
p6625
sI6625
S'810672'
p6626
sI6626
S'515654'
p6627
sI6627
S'7114584'
p6628
sI6628
S'1039096'
p6629
sI6629
S'6384751'
p6630
sI6630
S'9198146'
p6631
sI6631
S'6871587'
p6632
sI6632
S'350666'
p6633
sI6633
S'6346733'
p6634
sI6634
S'8869806'
p6635
sI6635
S'2742151'
p6636
sI6636
S'7873249'
p6637
sI6637
S'6412139'
p6638
sI6638
S'808660'
p6639
sI6639
S'1887829'
p6640
sI6640
S'9065928'
p6641
sI6641
S'6214853'
p6642
sI6642
S'4773949'
p6643
sI6643
S'7329845'
p6644
sI6644
S'1201496'
p6645
sI6645
S'8377605'
p6646
sI6646
S'8311822'
p6647
sI6647
S'8115187'
p6648
sI6648
S'9065436'
p6649
sI6649
S'2184114'
p6650
sI6650
S'9032559'
p6651
sI6651
S'6576481'
p6652
sI6652
S'3042811'
p6653
sI6653
S'546463'
p6654
sI6654
S'4347535'
p6655
sI6655
S'4216437'
p6656
sI6656
S'5197282'
p6657
sI6657
S'8442634'
p6658
sI6658
S'8475347'
p6659
sI6659
S'3199646'
p6660
sI6660
S'971116'
p6661
sI6661
S'4787600'
p6662
sI6662
S'6345856'
p6663
sI6663
S'8705073'
p6664
sI6664
S'9195875'
p6665
sI6665
S'2183476'
p6666
sI6666
S'7950588'
p6667
sI6667
S'86014'
p6668
sI6668
S'8146941'
p6669
sI6669
S'1914873'
p6670
sI6670
S'8048564'
p6671
sI6671
S'4978780'
p6672
sI6672
S'6836011'
p6673
sI6673
S'1914841'
p6674
sI6674
S'6364873'
p6675
sI6675
S'8015145'
p6676
sI6676
S'1101546'
p6677
sI6677
S'8310194'
p6678
sI6678
S'5754979'
p6679
sI6679
S'511448'
p6680
sI6680
S'9063798'
p6681
sI6681
S'2477409'
p6682
sI6682
S'7948450'
p6683
sI6683
S'1264674'
p6684
sI6684
S'2679272'
p6685
sI6685
S'2935640'
p6686
sI6686
S'1035044'
p6687
sI6687
S'968852'
p6688
sI6688
S'8990471'
p6689
sI6689
S'51073'
p6690
sI6690
S'8524545'
p6691
sI6691
S'8309401'
p6692
sI6692
S'8943537'
p6693
sI6693
S'7227980'
p6694
sI6694
S'8210905'
p6695
sI6695
S'7227859'
p6696
sI6696
S'583290'
p6697
sI6697
S'1608763'
p6698
sI6698
S'8276309'
p6699
sI6699
S'4344091'
p6700
sI6700
S'1296643'
p6701
sI6701
S'8472818'
p6702
sI6702
S'443908'
p6703
sI6703
S'83257'
p6704
sI6704
S'8701226'
p6705
sI6705
S'18904'
p6706
sI6706
S'7128974'
p6707
sI6707
S'660742'
p6708
sI6708
S'8036665'
p6709
sI6709
S'4950899'
p6710
sI6710
S'2703383'
p6711
sI6711
S'1520938'
p6712
sI6712
S'540411'
p6713
sI6713
S'900794'
p6714
sI6714
S'839625'
p6715
sI6715
S'7652219'
p6716
sI6716
S'2048834'
p6717
sI6717
S'6197038'
p6718
sI6718
S'7717643'
p6719
sI6719
S'3523282'
p6720
sI6720
S'4412006'
p6721
sI6721
S'1499238'
p6722
sI6722
S'5751240'
p6723
sI6723
S'9093551'
p6724
sI6724
S'4371866'
p6725
sI6725
S'1098003'
p6726
sI6726
S'2507021'
p6727
sI6727
S'8668219'
p6728
sI6728
S'2604715'
p6729
sI6729
S'2645947'
p6730
sI6730
S'5811888'
p6731
sI6731
S'7421008'
p6732
sI6732
S'3890704'
p6733
sI6733
S'1359681'
p6734
sI6734
S'5946419'
p6735
sI6735
S'6372358'
p6736
sI6736
S'1752048'
p6737
sI6737
S'1457128'
p6738
sI6738
S'1588163'
p6739
sI6739
S'5684156'
p6740
sI6740
S'5684036'
p6741
sI6741
S'8370959'
p6742
sI6742
S'2374370'
p6743
sI6743
S'7093732'
p6744
sI6744
S'4767170'
p6745
sI6745
S'4439461'
p6746
sI6746
S'5403892'
p6747
sI6747
S'7290262'
p6748
sI6748
S'1168261'
p6749
sI6749
S'4734252'
p6750
sI6750
S'998032'
p6751
sI6751
S'242656'
p6752
sI6752
S'1489782'
p6753
sI6753
S'8174442'
p6754
sI6754
S'7825627'
p6755
sI6755
S'8336780'
p6756
sI6756
S'8993199'
p6757
sI6757
S'461206'
p6758
sI6758
S'47484'
p6759
sI6759
S'275464'
p6760
sI6760
S'5458248'
p6761
sI6761
S'2077982'
p6762
sI6762
S'8172826'
p6763
sI6763
S'2274540'
p6764
sI6764
S'8827936'
p6765
sI6765
S'537602'
p6766
sI6766
S'1487856'
p6767
sI6767
S'1618782'
p6768
sI6768
S'7484256'
p6769
sI6769
S'4633421'
p6770
sI6770
S'1682072'
p6771
sI6771
S'6729923'
p6772
sI6772
S'2685184'
p6773
sI6773
S'1520790'
p6774
sI6774
S'307891'
p6775
sI6775
S'5222044'
p6776
sI6776
S'8172257'
p6777
sI6777
S'340669'
p6778
sI6778
S'1864454'
p6779
sI6779
S'1651228'
p6780
sI6780
S'3944915'
p6781
sI6781
S'7329545'
p6782
sI6782
S'1722426'
p6783
sI6783
S'6730473'
p6784
sI6784
S'8629449'
p6785
sI6785
S'4173626'
p6786
sI6786
S'2502406'
p6787
sI6787
S'4730628'
p6788
sI6788
S'5673185'
p6789
sI6789
S'8596659'
p6790
sI6790
S'7351420'
p6791
sI6791
S'1584007'
p6792
sI6792
S'8760141'
p6793
sI6793
S'9120506'
p6794
sI6794
S'895294'
p6795
sI6795
S'6211289'
p6796
sI6796
S'9021715'
p6797
sI6797
S'1190125'
p6798
sI6798
S'338013'
p6799
sI6799
S'9185911'
p6800
sI6800
S'5250150'
p6801
sI6801
S'6761066'
p6802
sI6802
S'7762355'
p6803
sI6803
S'7350830'
p6804
sI6804
S'7776769'
p6805
sI6805
S'6747905'
p6806
sI6806
S'731591'
p6807
sI6807
S'8614301'
p6808
sI6808
S'271434'
p6809
sI6809
S'4603784'
p6810
sI6810
S'5320410'
p6811
sI6811
S'41867'
p6812
sI6812
S'467839'
p6813
sI6813
S'8168233'
p6814
sI6814
S'795254'
p6815
sI6815
S'8996271'
p6816
sI6816
S'6562308'
p6817
sI6817
S'3646866'
p6818
sI6818
S'3351926'
p6819
sI6819
S'1615088'
p6820
sI6820
S'4269254'
p6821
sI6821
S'8037572'
p6822
sI6822
S'828572'
p6823
sI6823
S'74068'
p6824
sI6824
S'5992513'
p6825
sI6825
S'5284221'
p6826
sI6826
S'8339'
p6827
sI6827
S'728001'
p6828
sI6828
S'2303481'
p6829
sI6829
S'7329651'
p6830
sI6830
S'6824042'
p6831
sI6831
S'1810486'
p6832
sI6832
S'3186641'
p6833
sI6833
S'1515471'
p6834
sI6834
S'1711403'
p6835
sI6835
S'8373471'
p6836
sI6836
S'9051386'
p6837
sI6837
S'5184748'
p6838
sI6838
S'4660443'
p6839
sI6839
S'7546421'
p6840
sI6840
S'8036655'
p6841
sI6841
S'1907229'
p6842
sI6842
S'5643440'
p6843
sI6843
S'7718075'
p6844
sI6844
S'629851'
p6845
sI6845
S'1317908'
p6846
sI6846
S'4987913'
p6847
sI6847
S'3283447'
p6848
sI6848
S'6658953'
p6849
sI6849
S'9150416'
p6850
sI6850
S'7972067'
p6851
sI6851
S'8888256'
p6852
sI6852
S'1187425'
p6853
sI6853
S'1121697'
p6854
sI6854
S'6626648'
p6855
sI6855
S'2125621'
p6856
sI6856
S'1153827'
p6857
sI6857
S'9050940'
p6858
sI6858
S'3021598'
p6859
sI6859
S'7652484'
p6860
sI6860
S'72365'
p6861
sI6861
S'4233667'
p6862
sI6862
S'5184082'
p6863
sI6863
S'4069917'
p6864
sI6864
S'9051895'
p6865
sI6865
S'1122014'
p6866
sI6866
S'1121953'
p6867
sI6867
S'394517'
p6868
sI6868
S'2925557'
p6869
sI6869
S'1317849'
p6870
sI6870
S'3611131'
p6871
sI6871
S'6199764'
p6872
sI6872
S'9117702'
p6873
sI6873
S'2169208'
p6874
sI6874
S'1022316'
p6875
sI6875
S'9115107'
p6876
sI6876
S'136598'
p6877
sI6877
S'4560261'
p6878
sI6878
S'121065'
p6879
sI6879
S'6329731'
p6880
sI6880
S'1578362'
p6881
sI6881
S'7648255'
p6882
sI6882
S'5969074'
p6883
sI6883
S'6090251'
p6884
sI6884
S'6329340'
p6885
sI6885
S'890901'
p6886
sI6886
S'3971090'
p6887
sI6887
S'890875'
p6888
sI6888
S'5904236'
p6889
sI6889
S'2070192'
p6890
sI6890
S'3545312'
p6891
sI6891
S'4297642'
p6892
sI6892
S'1774461'
p6893
sI6893
S'6853456'
p6894
sI6894
S'7884670'
p6895
sI6895
S'1249881'
p6896
sI6896
S'1086031'
p6897
sI6897
S'1872399'
p6898
sI6898
S'1053136'
p6899
sI6899
S'4157031'
p6900
sI6900
S'3075480'
p6901
sI6901
S'2756856'
p6902
sI6902
S'8192732'
p6903
sI6903
S'8717008'
p6904
sI6904
S'645139'
p6905
sI6905
S'9080961'
p6906
sI6906
S'9080921'
p6907
sI6907
S'6257770'
p6908
sI6908
S'2887744'
p6909
sI6909
S'8196867'
p6910
sI6910
S'4358944'
p6911
sI6911
S'9080895'
p6912
sI6912
S'7245871'
p6913
sI6913
S'9080876'
p6914
sI6914
S'6885405'
p6915
sI6915
S'9080803'
p6916
sI6916
S'7311302'
p6917
sI6917
S'9080777'
p6918
sI6918
S'8392607'
p6919
sI6919
S'8225432'
p6920
sI6920
S'8294139'
p6921
sI6921
S'6688374'
p6922
sI6922
S'3968551'
p6923
sI6923
S'3870174'
p6924
sI6924
S'1051828'
p6925
sI6925
S'9080727'
p6926
sI6926
S'7662907'
p6927
sI6927
S'3772241'
p6928
sI6928
S'2232106'
p6929
sI6929
S'6199930'
p6930
sI6930
S'9047210'
p6931
sI6931
S'6031538'
p6932
sI6932
S'5172404'
p6933
sI6933
S'6545449'
p6934
sI6934
S'3410214'
p6935
sI6935
S'7193209'
p6936
sI6936
S'4950264'
p6937
sI6937
S'1346948'
p6938
sI6938
S'8293715'
p6939
sI6939
S'8307606'
p6940
sI6940
S'1411122'
p6941
sI6941
S'755735'
p6942
sI6942
S'8521718'
p6943
sI6943
S'1214348'
p6944
sI6944
S'4720512'
p6945
sI6945
S'6326133'
p6946
sI6946
S'5013816'
p6947
sI6947
S'5375821'
p6948
sI6948
S'4033038'
p6949
sI6949
S'6359505'
p6950
sI6950
S'2761733'
p6951
sI6951
S'3115424'
p6952
sI6952
S'1738415'
p6953
sI6953
S'4556428'
p6954
sI6954
S'6424138'
p6955
sI6955
S'6030513'
p6956
sI6956
S'8848524'
p6957
sI6957
S'4164567'
p6958
sI6958
S'756670'
p6959
sI6959
S'985813'
p6960
sI6960
S'4098710'
p6961
sI6961
S'8193992'
p6962
sI6962
S'4172638'
p6963
sI6963
S'8525314'
p6964
sI6964
S'958'
p6965
sI6965
S'5346803'
p6966
sI6966
S'6402782'
p6967
sI6967
S'2130640'
p6968
sI6968
S'7111375'
p6969
sI6969
S'6783655'
p6970
sI6970
S'7438969'
p6971
sI6971
S'4785521'
p6972
sI6972
S'4138701'
p6973
sI6973
S'4210906'
p6974
sI6974
S'7734510'
p6975
sI6975
S'3933399'
p6976
sI6976
S'7915887'
p6977
sI6977
S'8782392'
p6978
sI6978
S'3200431'
p6979
sI6979
S'8765524'
p6980
sI6980
S'1180103'
p6981
sI6981
S'2785715'
p6982
sI6982
S'3080612'
p6983
sI6983
S'524325'
p6984
sI6984
S'7602219'
p6985
sI6985
S'1769688'
p6986
sI6986
S'1967636'
p6987
sI6987
S'8324569'
p6988
sI6988
S'6849398'
p6989
sI6989
S'5309235'
p6990
sI6990
S'3998505'
p6991
sI6991
S'8028929'
p6992
sI6992
S'277269'
p6993
sI6993
S'491874'
p6994
sI6994
S'491867'
p6995
sI6995
S'7027139'
p6996
sI6996
S'8859249'
p6997
sI6997
S'4801368'
p6998
sI6998
S'4963638'
p6999
sI6999
S'5151423'
p7000
sI7000
S'1321279'
p7001
sI7001
S'4226785'
p7002
sI7002
S'5843306'
p7003
sI7003
S'4014209'
p7004
sI7004
S'8371435'
p7005
sI7005
S'2694526'
p7006
sI7006
S'1190031'
p7007
sI7007
S'3319447'
p7008
sI7008
S'4334896'
p7009
sI7009
S'9118962'
p7010
sI7010
S'564615'
p7011
sI7011
S'4068324'
p7012
sI7012
S'6559754'
p7013
sI7013
S'743519'
p7014
sI7014
S'5671939'
p7015
sI7015
S'7309852'
p7016
sI7016
S'8196736'
p7017
sI7017
S'8365665'
p7018
sI7018
S'1129953'
p7019
sI7019
S'8673121'
p7020
sI7020
S'8662323'
p7021
sI7021
S'8473437'
p7022
sI7022
S'8213950'
p7023
sI7023
S'8472919'
p7024
sI7024
S'8328450'
p7025
sI7025
S'8327746'
p7026
sI7026
S'8796117'
p7027
sI7027
S'8210570'
p7028
sI7028
S'8261649'
p7029
s.